; ModuleID = './RandomPrograms/randprog1.cpp'
target datalayout = "e-m:e-i64:64-f80:128-n8:16:32:64-S128"
target triple = "x86_64-unknown-linux-gnu"

@.str = private unnamed_addr constant [2 x i8] c"1\00", align 1
@_ZL3g_2 = internal global i32 -1, align 4
@.str1 = private unnamed_addr constant [4 x i8] c"g_2\00", align 1
@_ZL4g_33 = internal global i32 -2, align 4
@.str2 = private unnamed_addr constant [5 x i8] c"g_33\00", align 1
@_ZL4g_36 = internal global i32 4, align 4
@.str3 = private unnamed_addr constant [5 x i8] c"g_36\00", align 1
@_ZL4g_46 = internal global i16 28057, align 2
@.str4 = private unnamed_addr constant [5 x i8] c"g_46\00", align 1
@_ZL4g_48 = internal global i32 -1924627005, align 4
@.str5 = private unnamed_addr constant [5 x i8] c"g_48\00", align 1
@_ZL4g_49 = internal global [10 x [5 x i32]] [[5 x i32] [i32 -10, i32 1836696054, i32 -4, i32 -4, i32 -4], [5 x i32] [i32 -1249632573, i32 -1249632573, i32 1836696054, i32 1, i32 1], [5 x i32] [i32 -10, i32 1, i32 1, i32 1, i32 1], [5 x i32] [i32 1, i32 0, i32 1, i32 -4, i32 -792330888], [5 x i32] [i32 1, i32 1, i32 -10, i32 -1134614992, i32 -792330888], [5 x i32] [i32 1836696054, i32 -1249632573, i32 -1249632573, i32 1836696054, i32 1], [5 x i32] [i32 -4, i32 1836696054, i32 -10, i32 -792330888, i32 1], [5 x i32] [i32 -4, i32 -10, i32 1, i32 -10, i32 -4], [5 x i32] [i32 1836696054, i32 -1134614992, i32 1, i32 -792330888, i32 -1249632573], [5 x i32] [i32 1, i32 1836696054, i32 -1249632573, i32 -1249632573, i32 1836696054]], align 16
@.str6 = private unnamed_addr constant [11 x i8] c"g_49[i][j]\00", align 1
@.str7 = private unnamed_addr constant [18 x i8] c"index = [%d][%d]\0A\00", align 1
@_ZL4g_55 = internal global i32 1, align 4
@.str8 = private unnamed_addr constant [5 x i8] c"g_55\00", align 1
@_ZL4g_56 = internal global i16 1, align 2
@.str9 = private unnamed_addr constant [5 x i8] c"g_56\00", align 1
@_ZL4g_60 = internal global i16 12040, align 2
@.str10 = private unnamed_addr constant [5 x i8] c"g_60\00", align 1
@_ZL5g_166 = internal global i32 1881287054, align 4
@.str11 = private unnamed_addr constant [6 x i8] c"g_166\00", align 1
@_ZL5g_168 = internal global i32 -5, align 4
@.str12 = private unnamed_addr constant [6 x i8] c"g_168\00", align 1
@_ZL5g_277 = internal global i16 -25909, align 2
@.str13 = private unnamed_addr constant [6 x i8] c"g_277\00", align 1
@_ZL5g_394 = internal global i16 -3, align 2
@.str14 = private unnamed_addr constant [6 x i8] c"g_394\00", align 1
@_ZL5g_396 = internal global i32 -4, align 4
@.str15 = private unnamed_addr constant [6 x i8] c"g_396\00", align 1
@_ZL5g_398 = internal global i32 -1698197235, align 4
@.str16 = private unnamed_addr constant [6 x i8] c"g_398\00", align 1
@_ZL5g_489 = internal global i32 1693289766, align 4
@.str17 = private unnamed_addr constant [6 x i8] c"g_489\00", align 1
@_ZL5g_577 = internal global [5 x [1 x [2 x i32]]] [[1 x [2 x i32]] [[2 x i32] [i32 1, i32 8]], [1 x [2 x i32]] [[2 x i32] [i32 -9, i32 1]], [1 x [2 x i32]] zeroinitializer, [1 x [2 x i32]] [[2 x i32] [i32 0, i32 1]], [1 x [2 x i32]] [[2 x i32] [i32 -9, i32 8]]], align 16
@.str18 = private unnamed_addr constant [15 x i8] c"g_577[i][j][k]\00", align 1
@.str19 = private unnamed_addr constant [22 x i8] c"index = [%d][%d][%d]\0A\00", align 1
@_ZL5g_615 = internal global i32 1266665079, align 4
@.str20 = private unnamed_addr constant [6 x i8] c"g_615\00", align 1
@_ZL5g_622 = internal global i32 0, align 4
@.str21 = private unnamed_addr constant [6 x i8] c"g_622\00", align 1
@_ZL5g_778 = internal global i32 -8, align 4
@.str22 = private unnamed_addr constant [6 x i8] c"g_778\00", align 1
@_ZL5g_796 = internal global i32 -283799641, align 4
@.str23 = private unnamed_addr constant [6 x i8] c"g_796\00", align 1
@_ZL5g_859 = internal global i32 0, align 4
@.str24 = private unnamed_addr constant [6 x i8] c"g_859\00", align 1
@_ZL5g_860 = internal global [1 x [6 x i32]] [[6 x i32] [i32 1, i32 1, i32 1, i32 1, i32 1, i32 1]], align 16
@.str25 = private unnamed_addr constant [12 x i8] c"g_860[i][j]\00", align 1
@_ZL5g_930 = internal global i32 1, align 4
@.str26 = private unnamed_addr constant [6 x i8] c"g_930\00", align 1
@_ZL6g_1020 = internal global i32 174147155, align 4
@.str27 = private unnamed_addr constant [7 x i8] c"g_1020\00", align 1
@_ZL6g_1021 = internal global i32 0, align 4
@.str28 = private unnamed_addr constant [7 x i8] c"g_1021\00", align 1
@_ZL6g_1066 = internal global i16 -7964, align 2
@.str29 = private unnamed_addr constant [7 x i8] c"g_1066\00", align 1
@_ZL6g_1295 = internal global i32 6, align 4
@.str30 = private unnamed_addr constant [7 x i8] c"g_1295\00", align 1
@_ZL6g_1311 = internal global [6 x i32] [i32 1110868233, i32 1110868233, i32 1110868233, i32 1110868233, i32 1110868233, i32 1110868233], align 16
@.str31 = private unnamed_addr constant [10 x i8] c"g_1311[i]\00", align 1
@.str32 = private unnamed_addr constant [14 x i8] c"index = [%d]\0A\00", align 1
@_ZL6g_1430 = internal global i16 2, align 2
@.str33 = private unnamed_addr constant [7 x i8] c"g_1430\00", align 1
@_ZL6g_1442 = internal global i16 12071, align 2
@.str34 = private unnamed_addr constant [7 x i8] c"g_1442\00", align 1
@_ZL6g_1477 = internal global i16 -22218, align 2
@.str35 = private unnamed_addr constant [7 x i8] c"g_1477\00", align 1
@_ZL6g_1580 = internal global i16 -3, align 2
@.str36 = private unnamed_addr constant [7 x i8] c"g_1580\00", align 1
@_ZL6g_1666 = internal global i32 -5, align 4
@.str37 = private unnamed_addr constant [7 x i8] c"g_1666\00", align 1
@_ZL6g_1736 = internal global i16 -1, align 2
@.str38 = private unnamed_addr constant [7 x i8] c"g_1736\00", align 1
@_ZL6g_1834 = internal global i32 1, align 4
@.str39 = private unnamed_addr constant [7 x i8] c"g_1834\00", align 1
@_ZL6g_1873 = internal global i32 -1443672359, align 4
@.str40 = private unnamed_addr constant [7 x i8] c"g_1873\00", align 1
@_ZL6g_1892 = internal global i32 -1597644082, align 4
@.str41 = private unnamed_addr constant [7 x i8] c"g_1892\00", align 1
@_ZL6g_2106 = internal global i32 5, align 4
@.str42 = private unnamed_addr constant [7 x i8] c"g_2106\00", align 1
@_ZL6g_2124 = internal global [2 x [1 x [7 x i16]]] [[1 x [7 x i16]] [[7 x i16] [i16 -7341, i16 -7, i16 -7, i16 -7341, i16 12402, i16 -7341, i16 -7]], [1 x [7 x i16]] [[7 x i16] [i16 -8564, i16 -8564, i16 -7, i16 15222, i16 -7, i16 -8564, i16 -8564]]], align 16
@.str43 = private unnamed_addr constant [16 x i8] c"g_2124[i][j][k]\00", align 1
@_ZL6g_2318 = internal global i32 -1787628550, align 4
@.str44 = private unnamed_addr constant [7 x i8] c"g_2318\00", align 1
@_ZL13crc32_context = internal global i32 -1, align 4
@.str45 = private unnamed_addr constant [15 x i8] c"checksum = %X\0A\00", align 1
@.str46 = private unnamed_addr constant [35 x i8] c"...checksum after hashing %s : %X\0A\00", align 1
@_ZL9crc32_tab = internal global [256 x i32] zeroinitializer, align 16
@_ZZL6func_1vE3l_4 = private unnamed_addr constant [5 x [5 x [6 x i32]]] [[5 x [6 x i32]] [[6 x i32] [i32 -1130785399, i32 -1957822773, i32 -1582763539, i32 2, i32 895709185, i32 0], [6 x i32] [i32 -9, i32 -1957822773, i32 -6, i32 -9, i32 0, i32 1134343709], [6 x i32] [i32 -1830553323, i32 -5, i32 972421681, i32 1038378932, i32 1409643306, i32 655748694], [6 x i32] [i32 -1130785399, i32 0, i32 1409643306, i32 1, i32 1409643306, i32 0], [6 x i32] [i32 -1, i32 -5, i32 1286245973, i32 7, i32 0, i32 1409643306]], [5 x [6 x i32]] [[6 x i32] [i32 -28628944, i32 -1957822773, i32 276337448, i32 1038378932, i32 895709185, i32 2078931740], [6 x i32] [i32 1, i32 -1957822773, i32 1409643306, i32 1, i32 0, i32 972421681], [6 x i32] [i32 -9, i32 -5, i32 655748694, i32 -1, i32 1409643306, i32 1134343709], [6 x i32] [i32 -28628944, i32 0, i32 -1957822773, i32 0, i32 1409643306, i32 2078931740], [6 x i32] [i32 2, i32 -5, i32 -1582763539, i32 1, i32 0, i32 -1957822773]], [5 x [6 x i32]] [[6 x i32] [i32 -1757379985, i32 -1957822773, i32 1286245973, i32 -1, i32 895709185, i32 895709185], [6 x i32] [i32 -1830553323, i32 -1957822773, i32 -1957822773, i32 -1830553323, i32 0, i32 655748694], [6 x i32] [i32 1, i32 -5, i32 1134343709, i32 2, i32 1409643306, i32 972421681], [6 x i32] [i32 -1757379985, i32 0, i32 -6, i32 7, i32 1409643306, i32 895709185], [6 x i32] [i32 1038378932, i32 -5, i32 276337448, i32 0, i32 0, i32 -6]], [5 x [6 x i32]] [[6 x i32] [i32 -1130785399, i32 -1957822773, i32 -1582763539, i32 2, i32 895709185, i32 0], [6 x i32] [i32 -9, i32 -1957822773, i32 -6, i32 -9, i32 0, i32 1134343709], [6 x i32] [i32 -1830553323, i32 -5, i32 972421681, i32 1038378932, i32 1409643306, i32 655748694], [6 x i32] [i32 -1130785399, i32 0, i32 1409643306, i32 1, i32 1409643306, i32 0], [6 x i32] [i32 -1, i32 -5, i32 1286245973, i32 7, i32 0, i32 1409643306]], [5 x [6 x i32]] [[6 x i32] [i32 -28628944, i32 -1957822773, i32 276337448, i32 1038378932, i32 895709185, i32 2078931740], [6 x i32] [i32 1, i32 -1957822773, i32 1409643306, i32 1, i32 0, i32 972421681], [6 x i32] [i32 -9, i32 -5, i32 655748694, i32 -1, i32 1409643306, i32 1134343709], [6 x i32] [i32 -28628944, i32 0, i32 -1957822773, i32 0, i32 1409643306, i32 2078931740], [6 x i32] [i32 2, i32 -5, i32 -1582763539, i32 1, i32 0, i32 -1957822773]]], align 16
@_ZZL6func_1vE5l_871 = private unnamed_addr constant [9 x [3 x i32]] [[3 x i32] [i32 -224585530, i32 -1, i32 -1], [3 x i32] [i32 754761900, i32 -1, i32 -1], [3 x i32] [i32 754761900, i32 -1, i32 -1], [3 x i32] [i32 754761900, i32 -1, i32 -1], [3 x i32] [i32 754761900, i32 -1, i32 -1], [3 x i32] [i32 754761900, i32 -1, i32 -1], [3 x i32] [i32 754761900, i32 -1, i32 -1], [3 x i32] [i32 754761900, i32 -1, i32 -1], [3 x i32] [i32 754761900, i32 -1, i32 -1]], align 16
@_ZZL6func_1vE6l_1301 = private unnamed_addr constant [2 x [8 x [5 x i32]]] [[8 x [5 x i32]] [[5 x i32] [i32 -2142866591, i32 -1, i32 -2142866591, i32 1, i32 -417784723], [5 x i32] [i32 0, i32 1, i32 0, i32 0, i32 0], [5 x i32] [i32 -2142866591, i32 -1, i32 -2142866591, i32 1, i32 -417784723], [5 x i32] [i32 0, i32 1, i32 0, i32 0, i32 0], [5 x i32] [i32 -2142866591, i32 -1, i32 -2142866591, i32 1, i32 -417784723], [5 x i32] [i32 0, i32 1, i32 0, i32 0, i32 0], [5 x i32] [i32 -2142866591, i32 -1, i32 -2142866591, i32 1, i32 -417784723], [5 x i32] [i32 0, i32 1, i32 0, i32 0, i32 0]], [8 x [5 x i32]] [[5 x i32] [i32 -2142866591, i32 -1, i32 -2142866591, i32 1, i32 -417784723], [5 x i32] [i32 0, i32 1, i32 0, i32 0, i32 0], [5 x i32] [i32 -2142866591, i32 -1, i32 -2142866591, i32 1, i32 -417784723], [5 x i32] [i32 0, i32 1, i32 0, i32 0, i32 0], [5 x i32] [i32 -2142866591, i32 -1, i32 -2142866591, i32 1, i32 -417784723], [5 x i32] [i32 0, i32 1, i32 0, i32 0, i32 0], [5 x i32] [i32 -2142866591, i32 -1, i32 -2142866591, i32 1, i32 -417784723], [5 x i32] [i32 0, i32 1, i32 0, i32 0, i32 0]]], align 16
@_ZZL6func_1vE6l_1449 = private unnamed_addr constant [6 x i32] [i32 1980543023, i32 1980543023, i32 1980543023, i32 1980543023, i32 1980543023, i32 1980543023], align 16
@_ZZL6func_1vE6l_1628 = private unnamed_addr constant [6 x [4 x i16]] [[4 x i16] [i16 5806, i16 5806, i16 -2, i16 5806], [4 x i16] [i16 5806, i16 1, i16 1, i16 5806], [4 x i16] [i16 1, i16 5806, i16 1, i16 1], [4 x i16] [i16 5806, i16 5806, i16 -2, i16 5806], [4 x i16] [i16 5806, i16 1, i16 1, i16 5806], [4 x i16] [i16 1, i16 5806, i16 1, i16 1]], align 16
@_ZZL6func_1vE6l_1891 = private unnamed_addr constant [4 x [6 x [6 x i32]]] [[6 x [6 x i32]] [[6 x i32] [i32 1037320, i32 1037320, i32 -275675138, i32 -338704866, i32 -9, i32 -338704866], [6 x i32] [i32 679432479, i32 1037320, i32 679432479, i32 948090, i32 -275675138, i32 -275675138], [6 x i32] [i32 0, i32 679432479, i32 679432479, i32 0, i32 1037320, i32 -338704866], [6 x i32] [i32 -338704866, i32 0, i32 -275675138, i32 0, i32 -338704866, i32 948090], [6 x i32] [i32 0, i32 -338704866, i32 948090, i32 948090, i32 -338704866, i32 0], [6 x i32] [i32 679432479, i32 0, i32 1037320, i32 -338704866, i32 1037320, i32 0]], [6 x [6 x i32]] [[6 x i32] [i32 1037320, i32 679432479, i32 948090, i32 -275675138, i32 -275675138, i32 948090], [6 x i32] [i32 1037320, i32 1037320, i32 -275675138, i32 -338704866, i32 -9, i32 -338704866], [6 x i32] [i32 679432479, i32 1037320, i32 679432479, i32 948090, i32 -275675138, i32 -275675138], [6 x i32] [i32 679432479, i32 -338704866, i32 -338704866, i32 679432479, i32 -9, i32 948090], [6 x i32] [i32 948090, i32 679432479, i32 1037320, i32 679432479, i32 948090, i32 -275675138], [6 x i32] [i32 679432479, i32 948090, i32 -275675138, i32 -275675138, i32 948090, i32 679432479]], [6 x [6 x i32]] [[6 x i32] [i32 -338704866, i32 679432479, i32 -9, i32 948090, i32 -9, i32 679432479], [6 x i32] [i32 -9, i32 -338704866, i32 -275675138, i32 1037320, i32 1037320, i32 -275675138], [6 x i32] [i32 -9, i32 -9, i32 1037320, i32 948090, i32 0, i32 948090], [6 x i32] [i32 -338704866, i32 -9, i32 -338704866, i32 -275675138, i32 1037320, i32 1037320], [6 x i32] [i32 679432479, i32 -338704866, i32 -338704866, i32 679432479, i32 -9, i32 948090], [6 x i32] [i32 948090, i32 679432479, i32 1037320, i32 679432479, i32 948090, i32 -275675138]], [6 x [6 x i32]] [[6 x i32] [i32 679432479, i32 948090, i32 -275675138, i32 -275675138, i32 948090, i32 679432479], [6 x i32] [i32 -338704866, i32 679432479, i32 -9, i32 948090, i32 -9, i32 679432479], [6 x i32] [i32 -9, i32 -338704866, i32 -275675138, i32 1037320, i32 1037320, i32 -275675138], [6 x i32] [i32 -9, i32 -9, i32 1037320, i32 948090, i32 0, i32 948090], [6 x i32] [i32 -338704866, i32 -9, i32 -338704866, i32 -275675138, i32 1037320, i32 1037320], [6 x i32] [i32 679432479, i32 -338704866, i32 -338704866, i32 679432479, i32 -9, i32 948090]]], align 16
@_ZZL6func_1vE6l_2217 = private unnamed_addr constant [6 x [10 x i32]] [[10 x i32] [i32 8, i32 -872253894, i32 -227045996, i32 -590715710, i32 -6, i32 -6, i32 -590715710, i32 -227045996, i32 -872253894, i32 8], [10 x i32] [i32 1, i32 -872253894, i32 -9, i32 2121233469, i32 422996217, i32 -1701378101, i32 -6, i32 -1701378101, i32 422996217, i32 2121233469], [10 x i32] [i32 2121233469, i32 -848099926, i32 2121233469, i32 -872253894, i32 422996217, i32 0, i32 8, i32 1041240980, i32 1041240980, i32 8], [10 x i32] [i32 422996217, i32 -6, i32 0, i32 0, i32 -6, i32 422996217, i32 1, i32 1041240980, i32 -590715710, i32 -1701378101], [10 x i32] [i32 -848099926, i32 -1701378101, i32 2121233469, i32 -227045996, i32 1041240980, i32 -227045996, i32 2121233469, i32 -1701378101, i32 -848099926, i32 422996217], [10 x i32] [i32 -848099926, i32 0, i32 -9, i32 1, i32 -227045996, i32 422996217, i32 422996217, i32 -227045996, i32 1, i32 -9]], align 16
@_ZZL6func_1vE4l_59 = private unnamed_addr constant [1 x [9 x i32]] [[9 x i32] [i32 2137786228, i32 2137786228, i32 9, i32 2137786228, i32 2137786228, i32 9, i32 2137786228, i32 2137786228, i32 9]], align 16
@_ZZL6func_1vE5l_858 = private unnamed_addr constant [4 x i16] [i16 -14707, i16 -14707, i16 -14707, i16 -14707], align 2
@_ZZL6func_1vE6l_1503 = private unnamed_addr constant [6 x [4 x i16]] [[4 x i16] [i16 -24817, i16 -24817, i16 -24817, i16 -24817], [4 x i16] [i16 -24817, i16 -24817, i16 -24817, i16 -24817], [4 x i16] [i16 -24817, i16 -24817, i16 -24817, i16 -24817], [4 x i16] [i16 -24817, i16 -24817, i16 -24817, i16 -24817], [4 x i16] [i16 -24817, i16 -24817, i16 -24817, i16 -24817], [4 x i16] [i16 -24817, i16 -24817, i16 -24817, i16 -24817]], align 16
@_ZZL6func_1vE5l_725 = private unnamed_addr constant [10 x i32] [i32 1819239419, i32 1, i32 1819239419, i32 1819239419, i32 1, i32 1819239419, i32 1819239419, i32 1, i32 1819239419, i32 1819239419], align 16
@_ZZL6func_1vE5l_875 = private unnamed_addr constant [4 x [5 x [9 x i32]]] [[5 x [9 x i32]] [[9 x i32] [i32 1, i32 -1, i32 -6, i32 -1, i32 660341040, i32 1998782032, i32 -1943085183, i32 -1943085183, i32 1998782032], [9 x i32] [i32 -275818259, i32 0, i32 1, i32 0, i32 -275818259, i32 -47490640, i32 1313696051, i32 700861585, i32 -1975293404], [9 x i32] [i32 700861585, i32 -5, i32 -8, i32 881802582, i32 685840932, i32 -275818259, i32 1, i32 -741524309, i32 -1797235248], [9 x i32] [i32 -742009961, i32 1, i32 2, i32 -1975293404, i32 -841233877, i32 -47490640, i32 -1, i32 685840932, i32 -112774254], [9 x i32] [i32 -429554619, i32 1427265206, i32 -1401446539, i32 -697980267, i32 -6, i32 1998782032, i32 -1797235248, i32 -111810921, i32 685840932]], [5 x [9 x i32]] [[9 x i32] [i32 -1244175555, i32 -8, i32 748731527, i32 1, i32 -444520915, i32 881802582, i32 -1377500057, i32 1019336798, i32 -6], [9 x i32] [i32 1314521563, i32 -741524309, i32 891471557, i32 -841233877, i32 -1, i32 -1, i32 1, i32 1298941955, i32 -697980267], [9 x i32] [i32 1314521563, i32 412181402, i32 -1, i32 -1, i32 999858931, i32 -1797235248, i32 1298941955, i32 1, i32 -1], [9 x i32] [i32 -1244175555, i32 1019336798, i32 -841233877, i32 1427265206, i32 298999126, i32 -6, i32 1912941531, i32 -6, i32 298999126], [9 x i32] [i32 -429554619, i32 1998782032, i32 1998782032, i32 -429554619, i32 -1123850784, i32 -1975293404, i32 5, i32 263042027, i32 1019336798]], [5 x [9 x i32]] [[9 x i32] [i32 -742009961, i32 -6, i32 0, i32 -617042829, i32 700861585, i32 1, i32 -841233877, i32 -1401446539, i32 -429554619], [9 x i32] [i32 700861585, i32 1912941531, i32 -911117848, i32 -444520915, i32 -1123850784, i32 263042027, i32 -47490640, i32 -10, i32 1314521563], [9 x i32] [i32 -275818259, i32 -1, i32 -742009961, i32 0, i32 298999126, i32 -1, i32 -6, i32 -444520915, i32 412181402], [9 x i32] [i32 1, i32 -3, i32 -6, i32 -1123850784, i32 999858931, i32 1912941531, i32 0, i32 0, i32 -10], [9 x i32] [i32 -6, i32 0, i32 -47490640, i32 -742009961, i32 -1, i32 0, i32 1314521563, i32 -1, i32 -10]], [5 x [9 x i32]] [[9 x i32] [i32 0, i32 -1956734022, i32 -1975293404, i32 -1377500057, i32 -444520915, i32 -775396934, i32 -911117848, i32 -1, i32 412181402], [9 x i32] [i32 1, i32 -70444883, i32 0, i32 1314521563, i32 -6, i32 685840932, i32 685840932, i32 -6, i32 1314521563], [9 x i32] [i32 881802582, i32 1298941955, i32 881802582, i32 -1, i32 -841233877, i32 1, i32 0, i32 -1, i32 -429554619], [9 x i32] [i32 2, i32 700861585, i32 0, i32 412181402, i32 685840932, i32 -1244175555, i32 1998782032, i32 5, i32 1019336798], [9 x i32] [i32 1019336798, i32 -617042829, i32 -5, i32 -1, i32 0, i32 0, i32 1313696051, i32 298999126, i32 -1401446539]]], align 16
@_ZZL6func_1vE5l_924 = private unnamed_addr constant [2 x [10 x [7 x i32]]] [[10 x [7 x i32]] [[7 x i32] [i32 -1, i32 -1, i32 -6, i32 0, i32 1815420588, i32 -2, i32 7], [7 x i32] [i32 1374325200, i32 -1, i32 1, i32 0, i32 1815420588, i32 2086441245, i32 1688316134], [7 x i32] [i32 414476967, i32 3, i32 -559633732, i32 1855602959, i32 1815420588, i32 -9, i32 7], [7 x i32] [i32 1663173735, i32 -730813497, i32 7, i32 -9, i32 1815420588, i32 1855602959, i32 -559633732], [7 x i32] [i32 -730813497, i32 1663173735, i32 1688316134, i32 2086441245, i32 1815420588, i32 0, i32 1], [7 x i32] [i32 3, i32 414476967, i32 7, i32 -2, i32 1815420588, i32 0, i32 -6], [7 x i32] [i32 -1, i32 1374325200, i32 1, i32 -6, i32 1815420588, i32 -6, i32 1], [7 x i32] [i32 -1, i32 -1, i32 -6, i32 0, i32 1815420588, i32 -2, i32 7], [7 x i32] [i32 1374325200, i32 -1, i32 1, i32 0, i32 1815420588, i32 2086441245, i32 1688316134], [7 x i32] [i32 414476967, i32 3, i32 -559633732, i32 1855602959, i32 1815420588, i32 -9, i32 7]], [10 x [7 x i32]] [[7 x i32] [i32 1663173735, i32 -730813497, i32 7, i32 -9, i32 1815420588, i32 1855602959, i32 -559633732], [7 x i32] [i32 -730813497, i32 1663173735, i32 1688316134, i32 2086441245, i32 1815420588, i32 0, i32 1], [7 x i32] [i32 3, i32 414476967, i32 7, i32 -2, i32 1815420588, i32 0, i32 -6], [7 x i32] [i32 -1, i32 1374325200, i32 1, i32 -6, i32 1815420588, i32 -6, i32 1], [7 x i32] [i32 -1, i32 -1, i32 -6, i32 0, i32 1815420588, i32 -2, i32 7], [7 x i32] [i32 1374325200, i32 -1, i32 1, i32 0, i32 1815420588, i32 2086441245, i32 1688316134], [7 x i32] [i32 414476967, i32 3, i32 -559633732, i32 1855602959, i32 1815420588, i32 -9, i32 7], [7 x i32] [i32 1663173735, i32 -730813497, i32 7, i32 -9, i32 1815420588, i32 1855602959, i32 -559633732], [7 x i32] [i32 -730813497, i32 1663173735, i32 1688316134, i32 2086441245, i32 1815420588, i32 0, i32 1], [7 x i32] [i32 3, i32 414476967, i32 7, i32 -2, i32 1815420588, i32 0, i32 -6]]], align 16
@_ZZL6func_1vE6l_1165 = private unnamed_addr constant [8 x i32] [i32 -227461748, i32 891299874, i32 -227461748, i32 -227461748, i32 891299874, i32 -227461748, i32 -227461748, i32 891299874], align 16
@_ZZL6func_1vE6l_1351 = private unnamed_addr constant [7 x [6 x [5 x i32]]] [[6 x [5 x i32]] [[5 x i32] [i32 -806215593, i32 1, i32 1, i32 0, i32 3], [5 x i32] [i32 0, i32 649903633, i32 3, i32 -1299883054, i32 3], [5 x i32] [i32 -806215593, i32 -806215593, i32 1778401447, i32 1, i32 -2], [5 x i32] [i32 0, i32 -1299883054, i32 -1841935175, i32 -1299883054, i32 0], [5 x i32] [i32 3, i32 1, i32 -1018921074, i32 0, i32 0], [5 x i32] [i32 3, i32 -1299883054, i32 3, i32 649903633, i32 0]], [6 x [5 x i32]] [[5 x i32] [i32 -2, i32 -806215593, i32 1, i32 1, i32 0], [5 x i32] [i32 0, i32 649903633, i32 1159510307, i32 0, i32 0], [5 x i32] [i32 0, i32 1, i32 1, i32 0, i32 -2], [5 x i32] [i32 0, i32 0, i32 3, i32 -1, i32 3], [5 x i32] [i32 0, i32 -806215593, i32 -1018921074, i32 1, i32 3], [5 x i32] [i32 0, i32 -1, i32 -1841935175, i32 -1, i32 0]], [6 x [5 x i32]] [[5 x i32] [i32 -2, i32 1, i32 1778401447, i32 0, i32 -806215593], [5 x i32] [i32 3, i32 -1, i32 3, i32 0, i32 0], [5 x i32] [i32 3, i32 -806215593, i32 1, i32 1, i32 -806215593], [5 x i32] [i32 0, i32 0, i32 1159510307, i32 649903633, i32 0], [5 x i32] [i32 -806215593, i32 1, i32 1, i32 0, i32 3], [5 x i32] [i32 0, i32 649903633, i32 3, i32 -1299883054, i32 3]], [6 x [5 x i32]] [[5 x i32] [i32 -806215593, i32 -806215593, i32 1778401447, i32 1, i32 -2], [5 x i32] [i32 0, i32 -1299883054, i32 -1841935175, i32 -1299883054, i32 0], [5 x i32] [i32 3, i32 1, i32 -1018921074, i32 0, i32 0], [5 x i32] [i32 3, i32 -1299883054, i32 3, i32 649903633, i32 0], [5 x i32] [i32 -2, i32 -806215593, i32 1, i32 1, i32 0], [5 x i32] [i32 0, i32 649903633, i32 1159510307, i32 0, i32 0]], [6 x [5 x i32]] [[5 x i32] [i32 0, i32 1, i32 1, i32 0, i32 -2], [5 x i32] [i32 0, i32 0, i32 3, i32 -1, i32 3], [5 x i32] [i32 0, i32 -806215593, i32 -1018921074, i32 1, i32 3], [5 x i32] [i32 0, i32 -1, i32 -1841935175, i32 -1, i32 0], [5 x i32] [i32 -2, i32 1, i32 1778401447, i32 0, i32 -806215593], [5 x i32] [i32 3, i32 -1, i32 3, i32 0, i32 0]], [6 x [5 x i32]] [[5 x i32] [i32 3, i32 -806215593, i32 1, i32 1, i32 -806215593], [5 x i32] [i32 0, i32 0, i32 1159510307, i32 649903633, i32 0], [5 x i32] [i32 -806215593, i32 1, i32 1, i32 0, i32 3], [5 x i32] [i32 0, i32 649903633, i32 3, i32 -1299883054, i32 3], [5 x i32] [i32 -806215593, i32 -806215593, i32 1778401447, i32 1, i32 -2], [5 x i32] [i32 0, i32 -1299883054, i32 -1841935175, i32 -1299883054, i32 0]], [6 x [5 x i32]] [[5 x i32] [i32 3, i32 1, i32 -1018921074, i32 0, i32 0], [5 x i32] [i32 3, i32 -1299883054, i32 3, i32 649903633, i32 0], [5 x i32] [i32 -2, i32 -806215593, i32 1, i32 1, i32 0], [5 x i32] [i32 0, i32 649903633, i32 1159510307, i32 0, i32 0], [5 x i32] [i32 0, i32 1, i32 1, i32 0, i32 -2], [5 x i32] [i32 0, i32 0, i32 3, i32 -1, i32 3]]], align 16
@_ZZL6func_1vE6l_1451 = private unnamed_addr constant [10 x [6 x [1 x i32]]] [[6 x [1 x i32]] [[1 x i32] [i32 -1791735010], [1 x i32] [i32 -1573629100], [1 x i32] [i32 -1791735010], [1 x i32] [i32 -1573629100], [1 x i32] [i32 -1791735010], [1 x i32] [i32 -1573629100]], [6 x [1 x i32]] [[1 x i32] [i32 -1791735010], [1 x i32] [i32 -1573629100], [1 x i32] [i32 -1791735010], [1 x i32] [i32 -1573629100], [1 x i32] [i32 -1791735010], [1 x i32] [i32 -1573629100]], [6 x [1 x i32]] [[1 x i32] [i32 -1791735010], [1 x i32] [i32 -1573629100], [1 x i32] [i32 -1791735010], [1 x i32] [i32 -1573629100], [1 x i32] [i32 -1791735010], [1 x i32] [i32 -1573629100]], [6 x [1 x i32]] [[1 x i32] [i32 -1791735010], [1 x i32] [i32 -1573629100], [1 x i32] [i32 -1791735010], [1 x i32] [i32 -1573629100], [1 x i32] [i32 -1791735010], [1 x i32] [i32 -1573629100]], [6 x [1 x i32]] [[1 x i32] [i32 -1791735010], [1 x i32] [i32 -1573629100], [1 x i32] [i32 -1791735010], [1 x i32] [i32 -1573629100], [1 x i32] [i32 -1791735010], [1 x i32] [i32 -1573629100]], [6 x [1 x i32]] [[1 x i32] [i32 -1791735010], [1 x i32] [i32 -1573629100], [1 x i32] [i32 -1791735010], [1 x i32] [i32 -1573629100], [1 x i32] [i32 -1791735010], [1 x i32] [i32 -1573629100]], [6 x [1 x i32]] [[1 x i32] [i32 -1791735010], [1 x i32] [i32 -1573629100], [1 x i32] [i32 -1791735010], [1 x i32] [i32 -1573629100], [1 x i32] [i32 -1791735010], [1 x i32] [i32 -1573629100]], [6 x [1 x i32]] [[1 x i32] [i32 -1791735010], [1 x i32] [i32 -1573629100], [1 x i32] [i32 -1791735010], [1 x i32] [i32 -1573629100], [1 x i32] [i32 -1791735010], [1 x i32] [i32 -1573629100]], [6 x [1 x i32]] [[1 x i32] [i32 -1791735010], [1 x i32] [i32 -1573629100], [1 x i32] [i32 -1791735010], [1 x i32] [i32 -1573629100], [1 x i32] [i32 -1791735010], [1 x i32] [i32 -1573629100]], [6 x [1 x i32]] [[1 x i32] [i32 -1791735010], [1 x i32] [i32 -1573629100], [1 x i32] [i32 -1791735010], [1 x i32] [i32 -1573629100], [1 x i32] [i32 -1791735010], [1 x i32] [i32 -1573629100]]], align 16
@_ZZL6func_1vE6l_1514 = private unnamed_addr constant [4 x i32] [i32 -234938892, i32 -234938892, i32 -234938892, i32 -234938892], align 16
@_ZZL6func_1vE6l_1890 = private unnamed_addr constant [7 x [4 x [2 x i32]]] [[4 x [2 x i32]] [[2 x i32] [i32 -1, i32 -1], [2 x i32] [i32 -1, i32 -280167166], [2 x i32] [i32 1, i32 0], [2 x i32] [i32 -280167166, i32 0]], [4 x [2 x i32]] [[2 x i32] [i32 1, i32 -280167166], [2 x i32] [i32 -1, i32 -1], [2 x i32] [i32 -1, i32 -280167166], [2 x i32] [i32 1, i32 0]], [4 x [2 x i32]] [[2 x i32] [i32 -280167166, i32 0], [2 x i32] [i32 1, i32 -280167166], [2 x i32] [i32 -1, i32 -1], [2 x i32] [i32 -1, i32 -280167166]], [4 x [2 x i32]] [[2 x i32] [i32 1, i32 0], [2 x i32] [i32 -280167166, i32 0], [2 x i32] [i32 1, i32 -280167166], [2 x i32] [i32 -1, i32 -1]], [4 x [2 x i32]] [[2 x i32] [i32 -1, i32 -280167166], [2 x i32] [i32 1, i32 0], [2 x i32] [i32 -280167166, i32 0], [2 x i32] [i32 1, i32 -280167166]], [4 x [2 x i32]] [[2 x i32] [i32 -1, i32 -1], [2 x i32] [i32 -1, i32 -280167166], [2 x i32] [i32 1, i32 0], [2 x i32] [i32 -280167166, i32 0]], [4 x [2 x i32]] [[2 x i32] [i32 1, i32 -280167166], [2 x i32] [i32 -1, i32 -1], [2 x i32] [i32 -1, i32 -280167166], [2 x i32] [i32 1, i32 0]]], align 16
@_ZZL6func_1vE6l_1887 = private unnamed_addr constant [7 x i32] [i32 1660199867, i32 3, i32 1660199867, i32 1660199867, i32 3, i32 1660199867, i32 1660199867], align 16
@_ZZL6func_1vE6l_2185 = private unnamed_addr constant [3 x [10 x i32]] [[10 x i32] [i32 207507760, i32 207507760, i32 0, i32 207507760, i32 207507760, i32 0, i32 207507760, i32 207507760, i32 0, i32 207507760], [10 x i32] [i32 207507760, i32 434850564, i32 434850564, i32 207507760, i32 434850564, i32 434850564, i32 207507760, i32 434850564, i32 434850564, i32 207507760], [10 x i32] [i32 434850564, i32 207507760, i32 434850564, i32 434850564, i32 207507760, i32 434850564, i32 434850564, i32 207507760, i32 434850564, i32 434850564]], align 16
@_ZZL6func_1vE6l_2372 = private unnamed_addr constant [2 x [7 x [2 x i32]]] [[7 x [2 x i32]] [[2 x i32] [i32 -380349828, i32 -316819656], [2 x i32] [i32 -380349828, i32 -316819656], [2 x i32] [i32 -380349828, i32 -316819656], [2 x i32] [i32 -380349828, i32 -316819656], [2 x i32] [i32 -380349828, i32 -316819656], [2 x i32] [i32 -380349828, i32 -316819656], [2 x i32] [i32 -380349828, i32 -316819656]], [7 x [2 x i32]] [[2 x i32] [i32 -380349828, i32 -316819656], [2 x i32] [i32 -380349828, i32 -316819656], [2 x i32] [i32 -380349828, i32 -316819656], [2 x i32] [i32 -380349828, i32 -316819656], [2 x i32] [i32 -380349828, i32 -316819656], [2 x i32] [i32 -380349828, i32 -316819656], [2 x i32] [i32 -380349828, i32 -316819656]]], align 16
@_ZZL6func_1vE6l_2274 = private unnamed_addr constant [7 x i32] [i32 1761223169, i32 -1, i32 -1, i32 1761223169, i32 -1, i32 -1, i32 1761223169], align 16
@_ZZL6func_1vE6l_2337 = private unnamed_addr constant [7 x i32] [i32 625025538, i32 1253649506, i32 625025538, i32 625025538, i32 1253649506, i32 625025538, i32 625025538], align 16
@_ZZL6func_1vE6l_2373 = private unnamed_addr constant [10 x [5 x i32]] [[5 x i32] [i32 -4, i32 -768264010, i32 -4, i32 -768264010, i32 -4], [5 x i32] [i32 1441745039, i32 1441745039, i32 1441745039, i32 1441745039, i32 1441745039], [5 x i32] [i32 -4, i32 -768264010, i32 -4, i32 -768264010, i32 -4], [5 x i32] [i32 1441745039, i32 1441745039, i32 1441745039, i32 1441745039, i32 1441745039], [5 x i32] [i32 -4, i32 -768264010, i32 -4, i32 -768264010, i32 -4], [5 x i32] [i32 1441745039, i32 1441745039, i32 1441745039, i32 1441745039, i32 1441745039], [5 x i32] [i32 -4, i32 -768264010, i32 -4, i32 -768264010, i32 -4], [5 x i32] [i32 1441745039, i32 1441745039, i32 1441745039, i32 1441745039, i32 1441745039], [5 x i32] [i32 -4, i32 -768264010, i32 -4, i32 -768264010, i32 -4], [5 x i32] [i32 1441745039, i32 1441745039, i32 1441745039, i32 1441745039, i32 1441745039]], align 16
@_ZZL6func_1vE6l_2407 = private unnamed_addr constant [10 x [2 x [3 x i32]]] [[2 x [3 x i32]] [[3 x i32] [i32 -1107682178, i32 -8, i32 5], [3 x i32] [i32 -2, i32 0, i32 5]], [2 x [3 x i32]] [[3 x i32] [i32 1974753245, i32 5, i32 -1107682178], [3 x i32] [i32 1375867035, i32 1824131540, i32 1098186476]], [2 x [3 x i32]] [[3 x i32] [i32 5, i32 5, i32 1824131540], [3 x i32] [i32 -1, i32 0, i32 -444122073]], [2 x [3 x i32]] [[3 x i32] [i32 -1, i32 -8, i32 1375867035], [3 x i32] [i32 5, i32 -1107682178, i32 0]], [2 x [3 x i32]] [[3 x i32] [i32 1375867035, i32 -1, i32 1375867035], [3 x i32] [i32 1974753245, i32 -1072664214, i32 -444122073]], [2 x [3 x i32]] [[3 x i32] [i32 -2, i32 -1072664214, i32 1824131540], [3 x i32] [i32 -1107682178, i32 -1, i32 1098186476]], [2 x [3 x i32]] [[3 x i32] [i32 -644610635, i32 -1107682178, i32 -1107682178], [3 x i32] [i32 -1107682178, i32 -8, i32 5]], [2 x [3 x i32]] [[3 x i32] [i32 -2, i32 0, i32 5], [3 x i32] [i32 1974753245, i32 5, i32 -1107682178]], [2 x [3 x i32]] [[3 x i32] [i32 1375867035, i32 1824131540, i32 1098186476], [3 x i32] [i32 5, i32 5, i32 1824131540]], [2 x [3 x i32]] [[3 x i32] [i32 -1, i32 0, i32 -444122073], [3 x i32] [i32 -1, i32 -8, i32 1375867035]]], align 16
@_ZZL6func_1vE6l_2408 = private unnamed_addr constant [10 x [2 x i32]] [[2 x i32] [i32 8, i32 1439823568], [2 x i32] [i32 1439823568, i32 8], [2 x i32] [i32 1439823568, i32 1439823568], [2 x i32] [i32 8, i32 1439823568], [2 x i32] [i32 1439823568, i32 8], [2 x i32] [i32 1439823568, i32 1439823568], [2 x i32] [i32 8, i32 1439823568], [2 x i32] [i32 1439823568, i32 8], [2 x i32] [i32 1439823568, i32 1439823568], [2 x i32] [i32 8, i32 1439823568]], align 16
@_ZZL7func_21tsjE4l_72 = private unnamed_addr constant [6 x i16] [i16 4675, i16 4675, i16 4675, i16 4675, i16 4675, i16 4675], align 2
@_ZZL7func_21tsjE5l_188 = private unnamed_addr constant [7 x i32] [i32 -455168546, i32 4, i32 4, i32 -455168546, i32 4, i32 4, i32 -455168546], align 16
@_ZZL7func_21tsjE5l_274 = private unnamed_addr constant [8 x i32] [i32 8, i32 8, i32 8, i32 8, i32 8, i32 8, i32 8, i32 8], align 16
@_ZZL7func_21tsjE5l_247 = private unnamed_addr constant [1 x [2 x [3 x i32]]] [[2 x [3 x i32]] [[3 x i32] [i32 6, i32 6, i32 6], [3 x i32] [i32 -6, i32 -6, i32 -6]]], align 16
@_ZZL7func_21tsjE5l_276 = private unnamed_addr constant [5 x [5 x [7 x i16]]] [[5 x [7 x i16]] [[7 x i16] [i16 25072, i16 0, i16 0, i16 1255, i16 0, i16 14733, i16 -7], [7 x i16] [i16 1, i16 28603, i16 -4098, i16 -4438, i16 6, i16 -1, i16 -1], [7 x i16] [i16 21229, i16 14733, i16 -18174, i16 14733, i16 21229, i16 -13406, i16 9], [7 x i16] [i16 -1, i16 -4098, i16 -2976, i16 -5721, i16 -16139, i16 0, i16 -10], [7 x i16] [i16 -7789, i16 21229, i16 -29369, i16 9398, i16 0, i16 0, i16 0]], [5 x [7 x i16]] [[7 x i16] [i16 -1, i16 -5721, i16 -17281, i16 -1, i16 666, i16 6, i16 1], [7 x i16] [i16 21229, i16 -18174, i16 1, i16 1, i16 -18174, i16 21229, i16 0], [7 x i16] [i16 1, i16 -10, i16 -5, i16 10368, i16 23295, i16 -16139, i16 28603], [7 x i16] [i16 25072, i16 26536, i16 14733, i16 -1, i16 0, i16 0, i16 -1], [7 x i16] [i16 10368, i16 -10, i16 1, i16 0, i16 -5, i16 666, i16 -1]], [5 x [7 x i16]] [[7 x i16] [i16 0, i16 -18174, i16 1, i16 0, i16 1, i16 -18174, i16 1], [7 x i16] [i16 10368, i16 -2976, i16 0, i16 0, i16 -16139, i16 -17281, i16 -1], [7 x i16] [i16 9, i16 0, i16 -4, i16 0, i16 21556, i16 -7, i16 1], [7 x i16] [i16 -17281, i16 -10, i16 0, i16 -3, i16 -4438, i16 1, i16 3513], [7 x i16] [i16 -4, i16 -7789, i16 26536, i16 9, i16 9, i16 26536, i16 -7789]], [5 x [7 x i16]] [[7 x i16] [i16 0, i16 -4098, i16 0, i16 28603, i16 3513, i16 -16139, i16 -2976], [7 x i16] [i16 21229, i16 -7, i16 -7789, i16 0, i16 0, i16 21556, i16 -830], [7 x i16] [i16 3513, i16 -3, i16 1, i16 28603, i16 -4098, i16 -4438, i16 6], [7 x i16] [i16 0, i16 -830, i16 0, i16 9, i16 -1, i16 9, i16 0], [7 x i16] [i16 -16139, i16 -16139, i16 -5, i16 -3, i16 0, i16 3513, i16 -1]], [5 x [7 x i16]] [[7 x i16] [i16 -7789, i16 -18174, i16 -13406, i16 0, i16 21229, i16 0, i16 -4], [7 x i16] [i16 -5, i16 1, i16 -1, i16 0, i16 0, i16 -4098, i16 -16139], [7 x i16] [i16 21556, i16 1, i16 1255, i16 -29369, i16 -1, i16 -1, i16 -29369], [7 x i16] [i16 -10, i16 -1, i16 -10, i16 -16139, i16 -4098, i16 0, i16 0], [7 x i16] [i16 -7, i16 26536, i16 1, i16 -4, i16 0, i16 21229, i16 0]]], align 16
@_ZZL7func_80jE4l_85 = private unnamed_addr constant [7 x [7 x i32]] [[7 x i32] [i32 -9, i32 -67005619, i32 -67005619, i32 -9, i32 -583685334, i32 -5, i32 -5], [7 x i32] [i32 -196488370, i32 580163313, i32 -1, i32 580163313, i32 -196488370, i32 580163313, i32 -1], [7 x i32] [i32 -583685334, i32 -9, i32 -67005619, i32 -67005619, i32 -9, i32 -583685334, i32 -5], [7 x i32] [i32 0, i32 1218410546, i32 0, i32 580163313, i32 0, i32 1218410546, i32 0], [7 x i32] [i32 -583685334, i32 -67005619, i32 -5, i32 -9, i32 -9, i32 -5, i32 -67005619], [7 x i32] [i32 -196488370, i32 1218410546, i32 -1, i32 1218410546, i32 -196488370, i32 1218410546, i32 -1], [7 x i32] [i32 -9, i32 -9, i32 -5, i32 -67005619, i32 -583685334, i32 -583685334, i32 -67005619]], align 16
@_ZZL7func_80jE5l_135 = private unnamed_addr constant [10 x [10 x i16]] [[10 x i16] [i16 1, i16 15105, i16 -3957, i16 1, i16 1, i16 -3957, i16 15105, i16 1, i16 -3957, i16 1], [10 x i16] [i16 1, i16 13681, i16 6773, i16 1, i16 6773, i16 13681, i16 1, i16 -9102, i16 -9102, i16 1], [10 x i16] [i16 -9102, i16 1, i16 6773, i16 6773, i16 1, i16 -9102, i16 13681, i16 1, i16 13681, i16 -9102], [10 x i16] [i16 15105, i16 1, i16 -3957, i16 1, i16 15105, i16 -3957, i16 1, i16 1, i16 -3957, i16 15105], [10 x i16] [i16 15105, i16 13681, i16 13681, i16 13681, i16 3023, i16 29838, i16 13681, i16 29838, i16 3023, i16 13681], [10 x i16] [i16 29838, i16 13681, i16 29838, i16 3023, i16 13681, i16 -3957, i16 -3957, i16 13681, i16 3023, i16 29838], [10 x i16] [i16 -9102, i16 -9102, i16 1, i16 13681, i16 6773, i16 1, i16 6773, i16 13681, i16 1, i16 -9102], [10 x i16] [i16 6773, i16 -3957, i16 29838, i16 6773, i16 3023, i16 3023, i16 6773, i16 29838, i16 -3957, i16 6773], [10 x i16] [i16 29838, i16 -9102, i16 -3957, i16 3023, i16 -9102, i16 3023, i16 -3957, i16 -9102, i16 29838, i16 29838], [10 x i16] [i16 6773, i16 13681, i16 1, i16 -9102, i16 -9102, i16 1, i16 13681, i16 6773, i16 1, i16 6773]], align 16
@_ZZL7func_93ijjE4l_97 = private unnamed_addr constant [8 x [6 x [5 x i32]]] [[6 x [5 x i32]] [[5 x i32] [i32 2, i32 1405256942, i32 -4, i32 1405256942, i32 2], [5 x i32] [i32 -3, i32 9, i32 1628881301, i32 9, i32 -3], [5 x i32] [i32 2, i32 1405256942, i32 -4, i32 1405256942, i32 2], [5 x i32] [i32 -3, i32 9, i32 1628881301, i32 9, i32 -3], [5 x i32] [i32 2, i32 1405256942, i32 -4, i32 1405256942, i32 2], [5 x i32] [i32 -3, i32 9, i32 1628881301, i32 9, i32 -3]], [6 x [5 x i32]] [[5 x i32] [i32 2, i32 1405256942, i32 -4, i32 1405256942, i32 2], [5 x i32] [i32 -3, i32 9, i32 1628881301, i32 9, i32 -3], [5 x i32] [i32 2, i32 1405256942, i32 -4, i32 1405256942, i32 2], [5 x i32] [i32 -3, i32 9, i32 1628881301, i32 9, i32 -3], [5 x i32] [i32 2, i32 1405256942, i32 -4, i32 1405256942, i32 2], [5 x i32] [i32 -3, i32 9, i32 1628881301, i32 9, i32 -3]], [6 x [5 x i32]] [[5 x i32] [i32 2, i32 1405256942, i32 -4, i32 1405256942, i32 2], [5 x i32] [i32 -3, i32 9, i32 1628881301, i32 9, i32 -3], [5 x i32] [i32 2, i32 1405256942, i32 -4, i32 1405256942, i32 2], [5 x i32] [i32 -3, i32 9, i32 1628881301, i32 9, i32 -3], [5 x i32] [i32 2, i32 1405256942, i32 -4, i32 1405256942, i32 2], [5 x i32] [i32 -3, i32 9, i32 1628881301, i32 9, i32 -3]], [6 x [5 x i32]] [[5 x i32] [i32 2, i32 1405256942, i32 -4, i32 1405256942, i32 2], [5 x i32] [i32 -3, i32 9, i32 1628881301, i32 9, i32 -3], [5 x i32] [i32 2, i32 1405256942, i32 -4, i32 1405256942, i32 2], [5 x i32] [i32 -3, i32 9, i32 1628881301, i32 9, i32 -3], [5 x i32] [i32 2, i32 1405256942, i32 -4, i32 1405256942, i32 2], [5 x i32] [i32 -3, i32 9, i32 1628881301, i32 9, i32 -3]], [6 x [5 x i32]] [[5 x i32] [i32 2, i32 1405256942, i32 -4, i32 1405256942, i32 2], [5 x i32] [i32 -3, i32 9, i32 1628881301, i32 9, i32 -3], [5 x i32] [i32 2, i32 1405256942, i32 -4, i32 1, i32 76084847], [5 x i32] [i32 9, i32 1, i32 -1, i32 1, i32 9], [5 x i32] [i32 76084847, i32 1, i32 -1624386027, i32 1, i32 76084847], [5 x i32] [i32 9, i32 1, i32 -1, i32 1, i32 9]], [6 x [5 x i32]] [[5 x i32] [i32 76084847, i32 1, i32 -1624386027, i32 1, i32 76084847], [5 x i32] [i32 9, i32 1, i32 -1, i32 1, i32 9], [5 x i32] [i32 76084847, i32 1, i32 -1624386027, i32 1, i32 76084847], [5 x i32] [i32 9, i32 1, i32 -1, i32 1, i32 9], [5 x i32] [i32 76084847, i32 1, i32 -1624386027, i32 1, i32 76084847], [5 x i32] [i32 9, i32 1, i32 -1, i32 1, i32 9]], [6 x [5 x i32]] [[5 x i32] [i32 76084847, i32 1, i32 -1624386027, i32 1, i32 76084847], [5 x i32] [i32 9, i32 1, i32 -1, i32 1, i32 9], [5 x i32] [i32 76084847, i32 1, i32 -1624386027, i32 1, i32 76084847], [5 x i32] [i32 9, i32 1, i32 -1, i32 1, i32 9], [5 x i32] [i32 76084847, i32 1, i32 -1624386027, i32 1, i32 76084847], [5 x i32] [i32 9, i32 1, i32 -1, i32 1, i32 9]], [6 x [5 x i32]] [[5 x i32] [i32 76084847, i32 1, i32 -1624386027, i32 1, i32 76084847], [5 x i32] [i32 9, i32 1, i32 -1, i32 1, i32 9], [5 x i32] [i32 76084847, i32 1, i32 -1624386027, i32 1, i32 76084847], [5 x i32] [i32 9, i32 1, i32 -1, i32 1, i32 9], [5 x i32] [i32 76084847, i32 1, i32 -1624386027, i32 1, i32 76084847], [5 x i32] [i32 9, i32 1, i32 -1, i32 1, i32 9]]], align 16
@_ZZL7func_93ijjE5l_102 = private unnamed_addr constant [6 x [7 x i32]] [[7 x i32] [i32 -571150278, i32 0, i32 638087271, i32 -571150278, i32 -283360631, i32 -283360631, i32 -571150278], [7 x i32] [i32 -4, i32 0, i32 -4, i32 901053283, i32 0, i32 0, i32 0], [7 x i32] [i32 -426644873, i32 -571150278, i32 1910591458, i32 -571150278, i32 -426644873, i32 1910591458, i32 -1552070139], [7 x i32] [i32 -1, i32 0, i32 901053283, i32 -1, i32 901053283, i32 0, i32 -1], [7 x i32] [i32 638087271, i32 -1552070139, i32 0, i32 -283360631, i32 -1552070139, i32 -283360631, i32 0], [7 x i32] [i32 -1, i32 -1, i32 -275025420, i32 0, i32 974492719, i32 -275025420, i32 974492719]], align 16
@_ZZL7func_93ijjE5l_103 = private unnamed_addr constant [8 x i32] [i32 7, i32 200967678, i32 7, i32 200967678, i32 7, i32 200967678, i32 7, i32 200967678], align 16
@_ZZL7func_16jtjjE5l_346 = private unnamed_addr constant [6 x [3 x [4 x i32]]] [[3 x [4 x i32]] [[4 x i32] [i32 -1062101698, i32 295234022, i32 -1062101698, i32 -806616231], [4 x i32] [i32 -1062101698, i32 -806616231, i32 -806616231, i32 -1062101698], [4 x i32] [i32 1, i32 -806616231, i32 814885706, i32 -806616231]], [3 x [4 x i32]] [[4 x i32] [i32 -806616231, i32 295234022, i32 814885706, i32 814885706], [4 x i32] [i32 1, i32 1, i32 -806616231, i32 814885706], [4 x i32] [i32 -1062101698, i32 295234022, i32 -1062101698, i32 -806616231]], [3 x [4 x i32]] [[4 x i32] [i32 -1062101698, i32 -806616231, i32 -806616231, i32 -1062101698], [4 x i32] [i32 1, i32 -806616231, i32 814885706, i32 -806616231], [4 x i32] [i32 -806616231, i32 295234022, i32 814885706, i32 814885706]], [3 x [4 x i32]] [[4 x i32] [i32 1, i32 1, i32 -806616231, i32 814885706], [4 x i32] [i32 -1062101698, i32 295234022, i32 -1062101698, i32 -806616231], [4 x i32] [i32 -1062101698, i32 -806616231, i32 -806616231, i32 -1062101698]], [3 x [4 x i32]] [[4 x i32] [i32 1, i32 -806616231, i32 814885706, i32 -806616231], [4 x i32] [i32 -806616231, i32 295234022, i32 814885706, i32 814885706], [4 x i32] [i32 1, i32 1, i32 -806616231, i32 814885706]], [3 x [4 x i32]] [[4 x i32] [i32 -1062101698, i32 295234022, i32 -1062101698, i32 -806616231], [4 x i32] [i32 -1062101698, i32 -806616231, i32 -806616231, i32 -1062101698], [4 x i32] [i32 1, i32 -806616231, i32 814885706, i32 -806616231]]], align 16
@_ZZL7func_12jiiE5l_576 = private unnamed_addr constant [7 x [5 x i32]] [[5 x i32] [i32 9, i32 1, i32 -6, i32 -6, i32 1], [5 x i32] [i32 8, i32 -1458450247, i32 1298414959, i32 1, i32 1], [5 x i32] [i32 0, i32 -77074931, i32 0, i32 -6, i32 1626087962], [5 x i32] [i32 1, i32 1, i32 1, i32 1, i32 1], [5 x i32] [i32 0, i32 9, i32 -77074931, i32 1, i32 -77074931], [5 x i32] [i32 8, i32 8, i32 1, i32 1, i32 -1539252300], [5 x i32] [i32 9, i32 0, i32 0, i32 9, i32 -77074931]], align 16
@_ZZL7func_12jiiE5l_554 = private unnamed_addr constant [2 x [1 x [4 x i32]]] [[1 x [4 x i32]] [[4 x i32] [i32 -891263142, i32 -891263142, i32 -891263142, i32 -891263142]], [1 x [4 x i32]] [[4 x i32] [i32 -891263142, i32 -891263142, i32 -891263142, i32 -891263142]]], align 16
@_ZZL7func_12jiiE5l_548 = private unnamed_addr constant [1 x [10 x [10 x i16]]] [[10 x [10 x i16]] [[10 x i16] [i16 -20577, i16 -15425, i16 -4339, i16 -29349, i16 -29190, i16 1, i16 -15645, i16 -4339, i16 9918, i16 9], [10 x i16] [i16 -7, i16 9918, i16 1, i16 -15425, i16 -29190, i16 9, i16 -29349, i16 1, i16 -29349, i16 9], [10 x i16] [i16 -29190, i16 -15645, i16 6446, i16 -15645, i16 -29190, i16 -20577, i16 12185, i16 6446, i16 -15425, i16 9], [10 x i16] [i16 1, i16 -29349, i16 5692, i16 12185, i16 -29190, i16 -7, i16 -15425, i16 5692, i16 -15645, i16 9], [10 x i16] [i16 9, i16 12185, i16 -2, i16 9918, i16 -29190, i16 -29190, i16 9918, i16 -2, i16 12185, i16 9], [10 x i16] [i16 -20577, i16 -15425, i16 -4339, i16 -29349, i16 -29190, i16 1, i16 -15645, i16 -4339, i16 9918, i16 9], [10 x i16] [i16 -7, i16 9918, i16 1, i16 -15425, i16 -29190, i16 9, i16 -29349, i16 1, i16 -29349, i16 9], [10 x i16] [i16 -29190, i16 -15645, i16 6446, i16 -15645, i16 -29190, i16 -20577, i16 12185, i16 6446, i16 -15425, i16 9], [10 x i16] [i16 1, i16 -29349, i16 5692, i16 12185, i16 -29190, i16 -7, i16 -15425, i16 5692, i16 -15645, i16 9], [10 x i16] [i16 9, i16 12185, i16 -2, i16 9918, i16 -29190, i16 -29190, i16 0, i16 -25239, i16 26184, i16 -15645]]], align 16
@_ZZL7func_12jiiE5l_561 = private unnamed_addr constant [3 x [4 x i32]] [[4 x i32] [i32 158997814, i32 -1036964723, i32 -1, i32 -1036964723], [4 x i32] [i32 -1036964723, i32 1, i32 -1, i32 -1], [4 x i32] [i32 158997814, i32 158997814, i32 -1036964723, i32 -1]], align 16
@_ZZL7func_10tE5l_613 = private unnamed_addr constant [2 x [6 x [3 x i32]]] [[6 x [3 x i32]] [[3 x i32] [i32 -3, i32 -3, i32 -659336089], [3 x i32] [i32 1050559983, i32 -659336089, i32 -659336089], [3 x i32] [i32 -659336089, i32 -3, i32 -1], [3 x i32] [i32 1050559983, i32 -3, i32 1050559983], [3 x i32] [i32 -3, i32 -659336089, i32 -1], [3 x i32] [i32 -3, i32 -3, i32 -659336089]], [6 x [3 x i32]] [[3 x i32] [i32 1050559983, i32 -659336089, i32 -659336089], [3 x i32] [i32 -659336089, i32 -3, i32 -1], [3 x i32] [i32 1050559983, i32 -3, i32 1050559983], [3 x i32] [i32 -3, i32 -659336089, i32 -1], [3 x i32] [i32 -3, i32 -3, i32 -659336089], [3 x i32] [i32 1050559983, i32 -659336089, i32 -659336089]]], align 16
@_ZZL7func_10tE5l_614 = private unnamed_addr constant [10 x i16] [i16 2866, i16 26370, i16 26370, i16 2866, i16 26370, i16 26370, i16 2866, i16 2591, i16 2591, i16 26370], align 16
@_ZZL7func_10tE5l_618 = private unnamed_addr constant [10 x [4 x i32]] [[4 x i32] [i32 1864603484, i32 -1544171254, i32 -10, i32 -10], [4 x i32] [i32 -4, i32 -4, i32 1864603484, i32 -10], [4 x i32] [i32 -6, i32 -1544171254, i32 -6, i32 1864603484], [4 x i32] [i32 -6, i32 1864603484, i32 1864603484, i32 -6], [4 x i32] [i32 -4, i32 1864603484, i32 -10, i32 1864603484], [4 x i32] [i32 1864603484, i32 -1544171254, i32 -10, i32 -10], [4 x i32] [i32 -4, i32 -4, i32 1864603484, i32 -10], [4 x i32] [i32 -6, i32 -1544171254, i32 -6, i32 1864603484], [4 x i32] [i32 -6, i32 1864603484, i32 1864603484, i32 -6], [4 x i32] [i32 -4, i32 1864603484, i32 -10, i32 1864603484]], align 16

; Function Attrs: uwtable
define i32 @main(i32 %argc, i8** %argv) #0 {
entry:
  %retval = alloca i32, align 4
  %argc.addr = alloca i32, align 4
  %argv.addr = alloca i8**, align 8
  %i = alloca i32, align 4
  %j = alloca i32, align 4
  %k = alloca i32, align 4
  %print_hash_value = alloca i32, align 4
  store i32 0, i32* %retval
  store i32 %argc, i32* %argc.addr, align 4
  store i8** %argv, i8*** %argv.addr, align 8
  store i32 0, i32* %print_hash_value, align 4
  %0 = load i32* %argc.addr, align 4
  %cmp = icmp eq i32 %0, 2
  br i1 %cmp, label %land.lhs.true, label %if.end

land.lhs.true:                                    ; preds = %entry
  %1 = load i8*** %argv.addr, align 8
  %arrayidx = getelementptr inbounds i8** %1, i64 1
  %2 = load i8** %arrayidx, align 8
  %call = call i32 @strcmp(i8* %2, i8* getelementptr inbounds ([2 x i8]* @.str, i32 0, i32 0)) #5
  %cmp1 = icmp eq i32 %call, 0
  br i1 %cmp1, label %if.then, label %if.end

if.then:                                          ; preds = %land.lhs.true
  store i32 1, i32* %print_hash_value, align 4
  br label %if.end

if.end:                                           ; preds = %if.then, %land.lhs.true, %entry
  call void @_ZL19platform_main_beginv()
  call void @_ZL12crc32_gentabv()
  %call2 = call i32 @_ZL6func_1v()
  %3 = load i32* @_ZL3g_2, align 4
  %4 = load i32* %print_hash_value, align 4
  call void @_ZL15transparent_crcjPci(i32 %3, i8* getelementptr inbounds ([4 x i8]* @.str1, i32 0, i32 0), i32 %4)
  %5 = load i32* @_ZL4g_33, align 4
  %6 = load i32* %print_hash_value, align 4
  call void @_ZL15transparent_crcjPci(i32 %5, i8* getelementptr inbounds ([5 x i8]* @.str2, i32 0, i32 0), i32 %6)
  %7 = load i32* @_ZL4g_36, align 4
  %8 = load i32* %print_hash_value, align 4
  call void @_ZL15transparent_crcjPci(i32 %7, i8* getelementptr inbounds ([5 x i8]* @.str3, i32 0, i32 0), i32 %8)
  %9 = load i16* @_ZL4g_46, align 2
  %conv = sext i16 %9 to i32
  %10 = load i32* %print_hash_value, align 4
  call void @_ZL15transparent_crcjPci(i32 %conv, i8* getelementptr inbounds ([5 x i8]* @.str4, i32 0, i32 0), i32 %10)
  %11 = load i32* @_ZL4g_48, align 4
  %12 = load i32* %print_hash_value, align 4
  call void @_ZL15transparent_crcjPci(i32 %11, i8* getelementptr inbounds ([5 x i8]* @.str5, i32 0, i32 0), i32 %12)
  store i32 0, i32* %i, align 4
  br label %for.cond

for.cond:                                         ; preds = %for.inc13, %if.end
  %13 = load i32* %i, align 4
  %cmp3 = icmp slt i32 %13, 10
  br i1 %cmp3, label %for.body, label %for.end15

for.body:                                         ; preds = %for.cond
  store i32 0, i32* %j, align 4
  br label %for.cond4

for.cond4:                                        ; preds = %for.inc, %for.body
  %14 = load i32* %j, align 4
  %cmp5 = icmp slt i32 %14, 5
  br i1 %cmp5, label %for.body6, label %for.end

for.body6:                                        ; preds = %for.cond4
  %15 = load i32* %j, align 4
  %idxprom = sext i32 %15 to i64
  %16 = load i32* %i, align 4
  %idxprom7 = sext i32 %16 to i64
  %arrayidx8 = getelementptr inbounds [10 x [5 x i32]]* @_ZL4g_49, i32 0, i64 %idxprom7
  %arrayidx9 = getelementptr inbounds [5 x i32]* %arrayidx8, i32 0, i64 %idxprom
  %17 = load i32* %arrayidx9, align 4
  %18 = load i32* %print_hash_value, align 4
  call void @_ZL15transparent_crcjPci(i32 %17, i8* getelementptr inbounds ([11 x i8]* @.str6, i32 0, i32 0), i32 %18)
  %19 = load i32* %print_hash_value, align 4
  %tobool = icmp ne i32 %19, 0
  br i1 %tobool, label %if.then10, label %if.end12

if.then10:                                        ; preds = %for.body6
  %20 = load i32* %i, align 4
  %21 = load i32* %j, align 4
  %call11 = call i32 (i8*, ...)* @printf(i8* getelementptr inbounds ([18 x i8]* @.str7, i32 0, i32 0), i32 %20, i32 %21)
  br label %if.end12

if.end12:                                         ; preds = %if.then10, %for.body6
  br label %for.inc

for.inc:                                          ; preds = %if.end12
  %22 = load i32* %j, align 4
  %inc = add nsw i32 %22, 1
  store i32 %inc, i32* %j, align 4
  br label %for.cond4

for.end:                                          ; preds = %for.cond4
  br label %for.inc13

for.inc13:                                        ; preds = %for.end
  %23 = load i32* %i, align 4
  %inc14 = add nsw i32 %23, 1
  store i32 %inc14, i32* %i, align 4
  br label %for.cond

for.end15:                                        ; preds = %for.cond
  %24 = load i32* @_ZL4g_55, align 4
  %25 = load i32* %print_hash_value, align 4
  call void @_ZL15transparent_crcjPci(i32 %24, i8* getelementptr inbounds ([5 x i8]* @.str8, i32 0, i32 0), i32 %25)
  %26 = load i16* @_ZL4g_56, align 2
  %conv16 = sext i16 %26 to i32
  %27 = load i32* %print_hash_value, align 4
  call void @_ZL15transparent_crcjPci(i32 %conv16, i8* getelementptr inbounds ([5 x i8]* @.str9, i32 0, i32 0), i32 %27)
  %28 = load i16* @_ZL4g_60, align 2
  %conv17 = zext i16 %28 to i32
  %29 = load i32* %print_hash_value, align 4
  call void @_ZL15transparent_crcjPci(i32 %conv17, i8* getelementptr inbounds ([5 x i8]* @.str10, i32 0, i32 0), i32 %29)
  %30 = load i32* @_ZL5g_166, align 4
  %31 = load i32* %print_hash_value, align 4
  call void @_ZL15transparent_crcjPci(i32 %30, i8* getelementptr inbounds ([6 x i8]* @.str11, i32 0, i32 0), i32 %31)
  %32 = load i32* @_ZL5g_168, align 4
  %33 = load i32* %print_hash_value, align 4
  call void @_ZL15transparent_crcjPci(i32 %32, i8* getelementptr inbounds ([6 x i8]* @.str12, i32 0, i32 0), i32 %33)
  %34 = load volatile i16* @_ZL5g_277, align 2
  %conv18 = zext i16 %34 to i32
  %35 = load i32* %print_hash_value, align 4
  call void @_ZL15transparent_crcjPci(i32 %conv18, i8* getelementptr inbounds ([6 x i8]* @.str13, i32 0, i32 0), i32 %35)
  %36 = load i16* @_ZL5g_394, align 2
  %conv19 = zext i16 %36 to i32
  %37 = load i32* %print_hash_value, align 4
  call void @_ZL15transparent_crcjPci(i32 %conv19, i8* getelementptr inbounds ([6 x i8]* @.str14, i32 0, i32 0), i32 %37)
  %38 = load i32* @_ZL5g_396, align 4
  %39 = load i32* %print_hash_value, align 4
  call void @_ZL15transparent_crcjPci(i32 %38, i8* getelementptr inbounds ([6 x i8]* @.str15, i32 0, i32 0), i32 %39)
  %40 = load i32* @_ZL5g_398, align 4
  %41 = load i32* %print_hash_value, align 4
  call void @_ZL15transparent_crcjPci(i32 %40, i8* getelementptr inbounds ([6 x i8]* @.str16, i32 0, i32 0), i32 %41)
  %42 = load i32* @_ZL5g_489, align 4
  %43 = load i32* %print_hash_value, align 4
  call void @_ZL15transparent_crcjPci(i32 %42, i8* getelementptr inbounds ([6 x i8]* @.str17, i32 0, i32 0), i32 %43)
  store i32 0, i32* %i, align 4
  br label %for.cond20

for.cond20:                                       ; preds = %for.inc45, %for.end15
  %44 = load i32* %i, align 4
  %cmp21 = icmp slt i32 %44, 5
  br i1 %cmp21, label %for.body22, label %for.end47

for.body22:                                       ; preds = %for.cond20
  store i32 0, i32* %j, align 4
  br label %for.cond23

for.cond23:                                       ; preds = %for.inc42, %for.body22
  %45 = load i32* %j, align 4
  %cmp24 = icmp slt i32 %45, 1
  br i1 %cmp24, label %for.body25, label %for.end44

for.body25:                                       ; preds = %for.cond23
  store i32 0, i32* %k, align 4
  br label %for.cond26

for.cond26:                                       ; preds = %for.inc39, %for.body25
  %46 = load i32* %k, align 4
  %cmp27 = icmp slt i32 %46, 2
  br i1 %cmp27, label %for.body28, label %for.end41

for.body28:                                       ; preds = %for.cond26
  %47 = load i32* %k, align 4
  %idxprom29 = sext i32 %47 to i64
  %48 = load i32* %j, align 4
  %idxprom30 = sext i32 %48 to i64
  %49 = load i32* %i, align 4
  %idxprom31 = sext i32 %49 to i64
  %arrayidx32 = getelementptr inbounds [5 x [1 x [2 x i32]]]* @_ZL5g_577, i32 0, i64 %idxprom31
  %arrayidx33 = getelementptr inbounds [1 x [2 x i32]]* %arrayidx32, i32 0, i64 %idxprom30
  %arrayidx34 = getelementptr inbounds [2 x i32]* %arrayidx33, i32 0, i64 %idxprom29
  %50 = load volatile i32* %arrayidx34, align 4
  %51 = load i32* %print_hash_value, align 4
  call void @_ZL15transparent_crcjPci(i32 %50, i8* getelementptr inbounds ([15 x i8]* @.str18, i32 0, i32 0), i32 %51)
  %52 = load i32* %print_hash_value, align 4
  %tobool35 = icmp ne i32 %52, 0
  br i1 %tobool35, label %if.then36, label %if.end38

if.then36:                                        ; preds = %for.body28
  %53 = load i32* %i, align 4
  %54 = load i32* %j, align 4
  %55 = load i32* %k, align 4
  %call37 = call i32 (i8*, ...)* @printf(i8* getelementptr inbounds ([22 x i8]* @.str19, i32 0, i32 0), i32 %53, i32 %54, i32 %55)
  br label %if.end38

if.end38:                                         ; preds = %if.then36, %for.body28
  br label %for.inc39

for.inc39:                                        ; preds = %if.end38
  %56 = load i32* %k, align 4
  %inc40 = add nsw i32 %56, 1
  store i32 %inc40, i32* %k, align 4
  br label %for.cond26

for.end41:                                        ; preds = %for.cond26
  br label %for.inc42

for.inc42:                                        ; preds = %for.end41
  %57 = load i32* %j, align 4
  %inc43 = add nsw i32 %57, 1
  store i32 %inc43, i32* %j, align 4
  br label %for.cond23

for.end44:                                        ; preds = %for.cond23
  br label %for.inc45

for.inc45:                                        ; preds = %for.end44
  %58 = load i32* %i, align 4
  %inc46 = add nsw i32 %58, 1
  store i32 %inc46, i32* %i, align 4
  br label %for.cond20

for.end47:                                        ; preds = %for.cond20
  %59 = load i32* @_ZL5g_615, align 4
  %60 = load i32* %print_hash_value, align 4
  call void @_ZL15transparent_crcjPci(i32 %59, i8* getelementptr inbounds ([6 x i8]* @.str20, i32 0, i32 0), i32 %60)
  %61 = load i32* @_ZL5g_622, align 4
  %62 = load i32* %print_hash_value, align 4
  call void @_ZL15transparent_crcjPci(i32 %61, i8* getelementptr inbounds ([6 x i8]* @.str21, i32 0, i32 0), i32 %62)
  %63 = load volatile i32* @_ZL5g_778, align 4
  %64 = load i32* %print_hash_value, align 4
  call void @_ZL15transparent_crcjPci(i32 %63, i8* getelementptr inbounds ([6 x i8]* @.str22, i32 0, i32 0), i32 %64)
  %65 = load i32* @_ZL5g_796, align 4
  %66 = load i32* %print_hash_value, align 4
  call void @_ZL15transparent_crcjPci(i32 %65, i8* getelementptr inbounds ([6 x i8]* @.str23, i32 0, i32 0), i32 %66)
  %67 = load i32* @_ZL5g_859, align 4
  %68 = load i32* %print_hash_value, align 4
  call void @_ZL15transparent_crcjPci(i32 %67, i8* getelementptr inbounds ([6 x i8]* @.str24, i32 0, i32 0), i32 %68)
  store i32 0, i32* %i, align 4
  br label %for.cond48

for.cond48:                                       ; preds = %for.inc65, %for.end47
  %69 = load i32* %i, align 4
  %cmp49 = icmp slt i32 %69, 1
  br i1 %cmp49, label %for.body50, label %for.end67

for.body50:                                       ; preds = %for.cond48
  store i32 0, i32* %j, align 4
  br label %for.cond51

for.cond51:                                       ; preds = %for.inc62, %for.body50
  %70 = load i32* %j, align 4
  %cmp52 = icmp slt i32 %70, 6
  br i1 %cmp52, label %for.body53, label %for.end64

for.body53:                                       ; preds = %for.cond51
  %71 = load i32* %j, align 4
  %idxprom54 = sext i32 %71 to i64
  %72 = load i32* %i, align 4
  %idxprom55 = sext i32 %72 to i64
  %arrayidx56 = getelementptr inbounds [1 x [6 x i32]]* @_ZL5g_860, i32 0, i64 %idxprom55
  %arrayidx57 = getelementptr inbounds [6 x i32]* %arrayidx56, i32 0, i64 %idxprom54
  %73 = load i32* %arrayidx57, align 4
  %74 = load i32* %print_hash_value, align 4
  call void @_ZL15transparent_crcjPci(i32 %73, i8* getelementptr inbounds ([12 x i8]* @.str25, i32 0, i32 0), i32 %74)
  %75 = load i32* %print_hash_value, align 4
  %tobool58 = icmp ne i32 %75, 0
  br i1 %tobool58, label %if.then59, label %if.end61

if.then59:                                        ; preds = %for.body53
  %76 = load i32* %i, align 4
  %77 = load i32* %j, align 4
  %call60 = call i32 (i8*, ...)* @printf(i8* getelementptr inbounds ([18 x i8]* @.str7, i32 0, i32 0), i32 %76, i32 %77)
  br label %if.end61

if.end61:                                         ; preds = %if.then59, %for.body53
  br label %for.inc62

for.inc62:                                        ; preds = %if.end61
  %78 = load i32* %j, align 4
  %inc63 = add nsw i32 %78, 1
  store i32 %inc63, i32* %j, align 4
  br label %for.cond51

for.end64:                                        ; preds = %for.cond51
  br label %for.inc65

for.inc65:                                        ; preds = %for.end64
  %79 = load i32* %i, align 4
  %inc66 = add nsw i32 %79, 1
  store i32 %inc66, i32* %i, align 4
  br label %for.cond48

for.end67:                                        ; preds = %for.cond48
  %80 = load i32* @_ZL5g_930, align 4
  %81 = load i32* %print_hash_value, align 4
  call void @_ZL15transparent_crcjPci(i32 %80, i8* getelementptr inbounds ([6 x i8]* @.str26, i32 0, i32 0), i32 %81)
  %82 = load volatile i32* @_ZL6g_1020, align 4
  %83 = load i32* %print_hash_value, align 4
  call void @_ZL15transparent_crcjPci(i32 %82, i8* getelementptr inbounds ([7 x i8]* @.str27, i32 0, i32 0), i32 %83)
  %84 = load i32* @_ZL6g_1021, align 4
  %85 = load i32* %print_hash_value, align 4
  call void @_ZL15transparent_crcjPci(i32 %84, i8* getelementptr inbounds ([7 x i8]* @.str28, i32 0, i32 0), i32 %85)
  %86 = load i16* @_ZL6g_1066, align 2
  %conv68 = zext i16 %86 to i32
  %87 = load i32* %print_hash_value, align 4
  call void @_ZL15transparent_crcjPci(i32 %conv68, i8* getelementptr inbounds ([7 x i8]* @.str29, i32 0, i32 0), i32 %87)
  %88 = load i32* @_ZL6g_1295, align 4
  %89 = load i32* %print_hash_value, align 4
  call void @_ZL15transparent_crcjPci(i32 %88, i8* getelementptr inbounds ([7 x i8]* @.str30, i32 0, i32 0), i32 %89)
  store i32 0, i32* %i, align 4
  br label %for.cond69

for.cond69:                                       ; preds = %for.inc78, %for.end67
  %90 = load i32* %i, align 4
  %cmp70 = icmp slt i32 %90, 6
  br i1 %cmp70, label %for.body71, label %for.end80

for.body71:                                       ; preds = %for.cond69
  %91 = load i32* %i, align 4
  %idxprom72 = sext i32 %91 to i64
  %arrayidx73 = getelementptr inbounds [6 x i32]* @_ZL6g_1311, i32 0, i64 %idxprom72
  %92 = load i32* %arrayidx73, align 4
  %93 = load i32* %print_hash_value, align 4
  call void @_ZL15transparent_crcjPci(i32 %92, i8* getelementptr inbounds ([10 x i8]* @.str31, i32 0, i32 0), i32 %93)
  %94 = load i32* %print_hash_value, align 4
  %tobool74 = icmp ne i32 %94, 0
  br i1 %tobool74, label %if.then75, label %if.end77

if.then75:                                        ; preds = %for.body71
  %95 = load i32* %i, align 4
  %call76 = call i32 (i8*, ...)* @printf(i8* getelementptr inbounds ([14 x i8]* @.str32, i32 0, i32 0), i32 %95)
  br label %if.end77

if.end77:                                         ; preds = %if.then75, %for.body71
  br label %for.inc78

for.inc78:                                        ; preds = %if.end77
  %96 = load i32* %i, align 4
  %inc79 = add nsw i32 %96, 1
  store i32 %inc79, i32* %i, align 4
  br label %for.cond69

for.end80:                                        ; preds = %for.cond69
  %97 = load i16* @_ZL6g_1430, align 2
  %conv81 = sext i16 %97 to i32
  %98 = load i32* %print_hash_value, align 4
  call void @_ZL15transparent_crcjPci(i32 %conv81, i8* getelementptr inbounds ([7 x i8]* @.str33, i32 0, i32 0), i32 %98)
  %99 = load volatile i16* @_ZL6g_1442, align 2
  %conv82 = zext i16 %99 to i32
  %100 = load i32* %print_hash_value, align 4
  call void @_ZL15transparent_crcjPci(i32 %conv82, i8* getelementptr inbounds ([7 x i8]* @.str34, i32 0, i32 0), i32 %100)
  %101 = load i16* @_ZL6g_1477, align 2
  %conv83 = sext i16 %101 to i32
  %102 = load i32* %print_hash_value, align 4
  call void @_ZL15transparent_crcjPci(i32 %conv83, i8* getelementptr inbounds ([7 x i8]* @.str35, i32 0, i32 0), i32 %102)
  %103 = load i16* @_ZL6g_1580, align 2
  %conv84 = sext i16 %103 to i32
  %104 = load i32* %print_hash_value, align 4
  call void @_ZL15transparent_crcjPci(i32 %conv84, i8* getelementptr inbounds ([7 x i8]* @.str36, i32 0, i32 0), i32 %104)
  %105 = load i32* @_ZL6g_1666, align 4
  %106 = load i32* %print_hash_value, align 4
  call void @_ZL15transparent_crcjPci(i32 %105, i8* getelementptr inbounds ([7 x i8]* @.str37, i32 0, i32 0), i32 %106)
  %107 = load i16* @_ZL6g_1736, align 2
  %conv85 = zext i16 %107 to i32
  %108 = load i32* %print_hash_value, align 4
  call void @_ZL15transparent_crcjPci(i32 %conv85, i8* getelementptr inbounds ([7 x i8]* @.str38, i32 0, i32 0), i32 %108)
  %109 = load i32* @_ZL6g_1834, align 4
  %110 = load i32* %print_hash_value, align 4
  call void @_ZL15transparent_crcjPci(i32 %109, i8* getelementptr inbounds ([7 x i8]* @.str39, i32 0, i32 0), i32 %110)
  %111 = load i32* @_ZL6g_1873, align 4
  %112 = load i32* %print_hash_value, align 4
  call void @_ZL15transparent_crcjPci(i32 %111, i8* getelementptr inbounds ([7 x i8]* @.str40, i32 0, i32 0), i32 %112)
  %113 = load volatile i32* @_ZL6g_1892, align 4
  %114 = load i32* %print_hash_value, align 4
  call void @_ZL15transparent_crcjPci(i32 %113, i8* getelementptr inbounds ([7 x i8]* @.str41, i32 0, i32 0), i32 %114)
  %115 = load i32* @_ZL6g_2106, align 4
  %116 = load i32* %print_hash_value, align 4
  call void @_ZL15transparent_crcjPci(i32 %115, i8* getelementptr inbounds ([7 x i8]* @.str42, i32 0, i32 0), i32 %116)
  store i32 0, i32* %i, align 4
  br label %for.cond86

for.cond86:                                       ; preds = %for.inc112, %for.end80
  %117 = load i32* %i, align 4
  %cmp87 = icmp slt i32 %117, 2
  br i1 %cmp87, label %for.body88, label %for.end114

for.body88:                                       ; preds = %for.cond86
  store i32 0, i32* %j, align 4
  br label %for.cond89

for.cond89:                                       ; preds = %for.inc109, %for.body88
  %118 = load i32* %j, align 4
  %cmp90 = icmp slt i32 %118, 1
  br i1 %cmp90, label %for.body91, label %for.end111

for.body91:                                       ; preds = %for.cond89
  store i32 0, i32* %k, align 4
  br label %for.cond92

for.cond92:                                       ; preds = %for.inc106, %for.body91
  %119 = load i32* %k, align 4
  %cmp93 = icmp slt i32 %119, 7
  br i1 %cmp93, label %for.body94, label %for.end108

for.body94:                                       ; preds = %for.cond92
  %120 = load i32* %k, align 4
  %idxprom95 = sext i32 %120 to i64
  %121 = load i32* %j, align 4
  %idxprom96 = sext i32 %121 to i64
  %122 = load i32* %i, align 4
  %idxprom97 = sext i32 %122 to i64
  %arrayidx98 = getelementptr inbounds [2 x [1 x [7 x i16]]]* @_ZL6g_2124, i32 0, i64 %idxprom97
  %arrayidx99 = getelementptr inbounds [1 x [7 x i16]]* %arrayidx98, i32 0, i64 %idxprom96
  %arrayidx100 = getelementptr inbounds [7 x i16]* %arrayidx99, i32 0, i64 %idxprom95
  %123 = load i16* %arrayidx100, align 2
  %conv101 = zext i16 %123 to i32
  %124 = load i32* %print_hash_value, align 4
  call void @_ZL15transparent_crcjPci(i32 %conv101, i8* getelementptr inbounds ([16 x i8]* @.str43, i32 0, i32 0), i32 %124)
  %125 = load i32* %print_hash_value, align 4
  %tobool102 = icmp ne i32 %125, 0
  br i1 %tobool102, label %if.then103, label %if.end105

if.then103:                                       ; preds = %for.body94
  %126 = load i32* %i, align 4
  %127 = load i32* %j, align 4
  %128 = load i32* %k, align 4
  %call104 = call i32 (i8*, ...)* @printf(i8* getelementptr inbounds ([22 x i8]* @.str19, i32 0, i32 0), i32 %126, i32 %127, i32 %128)
  br label %if.end105

if.end105:                                        ; preds = %if.then103, %for.body94
  br label %for.inc106

for.inc106:                                       ; preds = %if.end105
  %129 = load i32* %k, align 4
  %inc107 = add nsw i32 %129, 1
  store i32 %inc107, i32* %k, align 4
  br label %for.cond92

for.end108:                                       ; preds = %for.cond92
  br label %for.inc109

for.inc109:                                       ; preds = %for.end108
  %130 = load i32* %j, align 4
  %inc110 = add nsw i32 %130, 1
  store i32 %inc110, i32* %j, align 4
  br label %for.cond89

for.end111:                                       ; preds = %for.cond89
  br label %for.inc112

for.inc112:                                       ; preds = %for.end111
  %131 = load i32* %i, align 4
  %inc113 = add nsw i32 %131, 1
  store i32 %inc113, i32* %i, align 4
  br label %for.cond86

for.end114:                                       ; preds = %for.cond86
  %132 = load i32* @_ZL6g_2318, align 4
  %133 = load i32* %print_hash_value, align 4
  call void @_ZL15transparent_crcjPci(i32 %132, i8* getelementptr inbounds ([7 x i8]* @.str44, i32 0, i32 0), i32 %133)
  %134 = load i32* @_ZL13crc32_context, align 4
  %conv115 = zext i32 %134 to i64
  %xor = xor i64 %conv115, 4294967295
  %conv116 = trunc i64 %xor to i32
  %135 = load i32* %print_hash_value, align 4
  call void @_ZL17platform_main_endji(i32 %conv116, i32 %135)
  ret i32 0
}

; Function Attrs: nounwind readonly
declare i32 @strcmp(i8*, i8*) #1

; Function Attrs: nounwind uwtable
define internal void @_ZL19platform_main_beginv() #2 {
entry:
  ret void
}

; Function Attrs: nounwind uwtable
define internal void @_ZL12crc32_gentabv() #2 {
entry:
  %crc = alloca i32, align 4
  %poly = alloca i32, align 4
  %i = alloca i32, align 4
  %j = alloca i32, align 4
  store i32 -306674912, i32* %poly, align 4
  store i32 0, i32* %i, align 4
  br label %for.cond

for.cond:                                         ; preds = %for.inc5, %entry
  %0 = load i32* %i, align 4
  %cmp = icmp slt i32 %0, 256
  br i1 %cmp, label %for.body, label %for.end6

for.body:                                         ; preds = %for.cond
  %1 = load i32* %i, align 4
  store i32 %1, i32* %crc, align 4
  store i32 8, i32* %j, align 4
  br label %for.cond1

for.cond1:                                        ; preds = %for.inc, %for.body
  %2 = load i32* %j, align 4
  %cmp2 = icmp sgt i32 %2, 0
  br i1 %cmp2, label %for.body3, label %for.end

for.body3:                                        ; preds = %for.cond1
  %3 = load i32* %crc, align 4
  %and = and i32 %3, 1
  %tobool = icmp ne i32 %and, 0
  br i1 %tobool, label %if.then, label %if.else

if.then:                                          ; preds = %for.body3
  %4 = load i32* %crc, align 4
  %shr = lshr i32 %4, 1
  %xor = xor i32 %shr, -306674912
  store i32 %xor, i32* %crc, align 4
  br label %if.end

if.else:                                          ; preds = %for.body3
  %5 = load i32* %crc, align 4
  %shr4 = lshr i32 %5, 1
  store i32 %shr4, i32* %crc, align 4
  br label %if.end

if.end:                                           ; preds = %if.else, %if.then
  br label %for.inc

for.inc:                                          ; preds = %if.end
  %6 = load i32* %j, align 4
  %dec = add nsw i32 %6, -1
  store i32 %dec, i32* %j, align 4
  br label %for.cond1

for.end:                                          ; preds = %for.cond1
  %7 = load i32* %crc, align 4
  %8 = load i32* %i, align 4
  %idxprom = sext i32 %8 to i64
  %arrayidx = getelementptr inbounds [256 x i32]* @_ZL9crc32_tab, i32 0, i64 %idxprom
  store i32 %7, i32* %arrayidx, align 4
  br label %for.inc5

for.inc5:                                         ; preds = %for.end
  %9 = load i32* %i, align 4
  %inc = add nsw i32 %9, 1
  store i32 %inc, i32* %i, align 4
  br label %for.cond

for.end6:                                         ; preds = %for.cond
  ret void
}

; Function Attrs: uwtable
define internal i32 @_ZL6func_1v() #0 {
entry:
  %retval = alloca i32, align 4
  %l_4 = alloca [5 x [5 x [6 x i32]]], align 16
  %l_659 = alloca i32, align 4
  %l_660 = alloca i32, align 4
  %l_676 = alloca i32, align 4
  %l_704 = alloca i32, align 4
  %l_820 = alloca i32, align 4
  %l_871 = alloca [9 x [3 x i32]], align 16
  %l_953 = alloca i32, align 4
  %l_1100 = alloca i32, align 4
  %l_1166 = alloca i32, align 4
  %l_1190 = alloca i32, align 4
  %l_1193 = alloca i16, align 2
  %l_1258 = alloca i32, align 4
  %l_1266 = alloca i32, align 4
  %l_1300 = alloca i32, align 4
  %l_1301 = alloca [2 x [8 x [5 x i32]]], align 16
  %l_1370 = alloca [5 x i32], align 16
  %l_1449 = alloca [6 x i32], align 16
  %l_1589 = alloca i32, align 4
  %l_1628 = alloca [6 x [4 x i16]], align 16
  %l_1629 = alloca i16, align 2
  %l_1688 = alloca i32, align 4
  %l_1729 = alloca i16, align 2
  %l_1737 = alloca i32, align 4
  %l_1837 = alloca [6 x i32], align 16
  %l_1891 = alloca [4 x [6 x [6 x i32]]], align 16
  %l_1955 = alloca i32, align 4
  %l_2170 = alloca i32, align 4
  %l_2181 = alloca i32, align 4
  %l_2215 = alloca [1 x i16], align 2
  %l_2217 = alloca [6 x [10 x i32]], align 16
  %l_2306 = alloca i32, align 4
  %l_2355 = alloca i32, align 4
  %l_2419 = alloca i32, align 4
  %i = alloca i32, align 4
  %j = alloca i32, align 4
  %k = alloca i32, align 4
  %l_3 = alloca i32, align 4
  %l_57 = alloca i32, align 4
  %l_59 = alloca [1 x [9 x i32]], align 16
  %l_63 = alloca i32, align 4
  %l_661 = alloca i16, align 2
  %i17 = alloca i32, align 4
  %j18 = alloca i32, align 4
  %l_7 = alloca i32, align 4
  %l_58 = alloca i32, align 4
  %l_603 = alloca i32, align 4
  %l_662 = alloca i16, align 2
  %l_679 = alloca i16, align 2
  %l_730 = alloca i32, align 4
  %l_858 = alloca [4 x i16], align 2
  %l_987 = alloca i32, align 4
  %l_1031 = alloca i32, align 4
  %l_1173 = alloca i32, align 4
  %l_1197 = alloca i32, align 4
  %l_1249 = alloca [10 x i32], align 16
  %l_1503 = alloca [6 x [4 x i16]], align 16
  %l_1591 = alloca i16, align 2
  %l_1613 = alloca i32, align 4
  %i162 = alloca i32, align 4
  %j163 = alloca i32, align 4
  %l_688 = alloca i16, align 2
  %l_703 = alloca i32, align 4
  %l_826 = alloca i32, align 4
  %l_861 = alloca i32, align 4
  %l_904 = alloca [3 x i16], align 2
  %l_1073 = alloca i16, align 2
  %l_1124 = alloca i16, align 2
  %l_1251 = alloca i32, align 4
  %l_1253 = alloca i32, align 4
  %l_1256 = alloca i32, align 4
  %l_1257 = alloca i32, align 4
  %i215 = alloca i32, align 4
  %l_725 = alloca [10 x i32], align 16
  %i290 = alloca i32, align 4
  %l_731 = alloca i32, align 4
  %l_795 = alloca i32, align 4
  %l_834 = alloca i32, align 4
  %l_872 = alloca i16, align 2
  %l_874 = alloca i32, align 4
  %l_929 = alloca i16, align 2
  %l_952 = alloca i32, align 4
  %l_759 = alloca [6 x i32], align 16
  %l_763 = alloca i32, align 4
  %l_862 = alloca i32, align 4
  %l_875 = alloca [4 x [5 x [9 x i32]]], align 16
  %i424 = alloca i32, align 4
  %j425 = alloca i32, align 4
  %k426 = alloca i32, align 4
  %l_762 = alloca i32, align 4
  %i607 = alloca i32, align 4
  %j608 = alloca i32, align 4
  %l_925 = alloca i32, align 4
  %l_928 = alloca i32, align 4
  %l_935 = alloca [3 x i32], align 4
  %i825 = alloca i32, align 4
  %l_924 = alloca [2 x [10 x [7 x i32]]], align 16
  %i838 = alloca i32, align 4
  %j839 = alloca i32, align 4
  %k840 = alloca i32, align 4
  %l_954 = alloca i32, align 4
  %l_1099 = alloca i32, align 4
  %l_1125 = alloca i32, align 4
  %l_1196 = alloca i32, align 4
  %l_1250 = alloca i32, align 4
  %l_1252 = alloca i32, align 4
  %l_1254 = alloca i32, align 4
  %l_1255 = alloca i32, align 4
  %l_1030 = alloca i16, align 2
  %l_1038 = alloca [4 x i32], align 16
  %l_1126 = alloca i16, align 2
  %i1091 = alloca i32, align 4
  %l_1039 = alloca i16, align 2
  %l_1074 = alloca i16, align 2
  %l_1156 = alloca i32, align 4
  %l_1165 = alloca [8 x i32], align 16
  %l_1167 = alloca i32, align 4
  %i1442 = alloca i32, align 4
  %j1443 = alloca i32, align 4
  %k1444 = alloca i32, align 4
  %l_1200 = alloca i32, align 4
  %l_1248 = alloca i32, align 4
  %l_1223 = alloca i32, align 4
  %l_1245 = alloca i16, align 2
  %l_1263 = alloca i32, align 4
  %l_1293 = alloca i32, align 4
  %l_1336 = alloca [5 x [2 x [1 x i32]]], align 16
  %l_1561 = alloca i16, align 2
  %i1658 = alloca i32, align 4
  %j1659 = alloca i32, align 4
  %k1660 = alloca i32, align 4
  %l_1292 = alloca i32, align 4
  %l_1294 = alloca i16, align 2
  %l_1306 = alloca i32, align 4
  %l_1309 = alloca i32, align 4
  %l_1310 = alloca i32, align 4
  %l_1352 = alloca [4 x i16], align 2
  %l_1384 = alloca i16, align 2
  %i1744 = alloca i32, align 4
  %l_1351 = alloca [7 x [6 x [5 x i32]]], align 16
  %i1756 = alloca i32, align 4
  %j1757 = alloca i32, align 4
  %k1758 = alloca i32, align 4
  %l_1307 = alloca i32, align 4
  %l_1308 = alloca [4 x i32], align 16
  %l_1334 = alloca i32, align 4
  %i1768 = alloca i32, align 4
  %l_1428 = alloca i32, align 4
  %l_1465 = alloca i16, align 2
  %l_1470 = alloca i32, align 4
  %l_1486 = alloca i32, align 4
  %l_1532 = alloca i32, align 4
  %l_1590 = alloca i32, align 4
  %l_1429 = alloca i16, align 2
  %l_1433 = alloca i32, align 4
  %l_1451 = alloca [10 x [6 x [1 x i32]]], align 16
  %i1990 = alloca i32, align 4
  %j1991 = alloca i32, align 4
  %k1992 = alloca i32, align 4
  %l_1478 = alloca i32, align 4
  %l_1514 = alloca [4 x i32], align 16
  %l_1614 = alloca i32, align 4
  %i2293 = alloca i32, align 4
  %l_1562 = alloca [8 x i32], align 16
  %l_1577 = alloca i32, align 4
  %i2394 = alloca i32, align 4
  %l_1609 = alloca i32, align 4
  %l_1644 = alloca [1 x i16], align 2
  %l_1661 = alloca i32, align 4
  %l_1667 = alloca i32, align 4
  %l_1689 = alloca i32, align 4
  %i2662 = alloca i32, align 4
  %l_1660 = alloca i32, align 4
  %l_1690 = alloca i16, align 2
  %l_1691 = alloca i32, align 4
  %l_1738 = alloca i32, align 4
  %l_1694 = alloca i16, align 2
  %l_1700 = alloca [1 x i32], align 4
  %i2834 = alloca i32, align 4
  %l_1748 = alloca i16, align 2
  %l_1771 = alloca i32, align 4
  %l_1801 = alloca i32, align 4
  %l_1853 = alloca i32, align 4
  %l_1876 = alloca i16, align 2
  %l_1877 = alloca i32, align 4
  %l_1878 = alloca i32, align 4
  %l_1879 = alloca i32, align 4
  %l_1883 = alloca i32, align 4
  %l_1888 = alloca [6 x i16], align 2
  %l_1889 = alloca i32, align 4
  %l_1890 = alloca [7 x [4 x [2 x i32]]], align 16
  %l_2080 = alloca i16, align 2
  %l_2145 = alloca i16, align 2
  %l_2214 = alloca i16, align 2
  %l_2336 = alloca i16, align 2
  %l_2406 = alloca i32, align 4
  %l_2418 = alloca i32, align 4
  %i2944 = alloca i32, align 4
  %j2945 = alloca i32, align 4
  %k2946 = alloca i32, align 4
  %l_1749 = alloca i16, align 2
  %l_1772 = alloca i32, align 4
  %l_1792 = alloca i32, align 4
  %l_1798 = alloca i32, align 4
  %l_1800 = alloca i32, align 4
  %l_1793 = alloca i32, align 4
  %l_1794 = alloca i32, align 4
  %l_1796 = alloca i32, align 4
  %l_1797 = alloca i32, align 4
  %l_1770 = alloca i32, align 4
  %l_1799 = alloca i32, align 4
  %l_1752 = alloca i32, align 4
  %l_1795 = alloca i32, align 4
  %l_1831 = alloca i16, align 2
  %l_1872 = alloca i16, align 2
  %l_1874 = alloca i32, align 4
  %l_1875 = alloca i32, align 4
  %l_1880 = alloca i32, align 4
  %l_1881 = alloca i32, align 4
  %l_1882 = alloca i32, align 4
  %l_1884 = alloca i32, align 4
  %l_1885 = alloca i32, align 4
  %l_1886 = alloca i16, align 2
  %l_1887 = alloca [7 x i32], align 16
  %l_1898 = alloca [1 x i32], align 4
  %l_2048 = alloca i32, align 4
  %l_2049 = alloca i32, align 4
  %l_2147 = alloca i32, align 4
  %i3221 = alloca i32, align 4
  %l_1923 = alloca i32, align 4
  %l_2000 = alloca i32, align 4
  %l_2021 = alloca i32, align 4
  %l_2050 = alloca [2 x [1 x i32]], align 4
  %l_2067 = alloca i16, align 2
  %i3233 = alloca i32, align 4
  %j3234 = alloca i32, align 4
  %l_1952 = alloca i32, align 4
  %l_1972 = alloca i32, align 4
  %l_1983 = alloca i32, align 4
  %l_1993 = alloca [3 x i32], align 4
  %i3469 = alloca i32, align 4
  %l_2024 = alloca i32, align 4
  %l_2029 = alloca i32, align 4
  %l_2064 = alloca i32, align 4
  %l_2142 = alloca i16, align 2
  %l_2146 = alloca i32, align 4
  %l_2185 = alloca [3 x [10 x i32]], align 16
  %l_2213 = alloca i32, align 4
  %i3992 = alloca i32, align 4
  %j3993 = alloca i32, align 4
  %l_2182 = alloca i16, align 2
  %i3998 = alloca i32, align 4
  %i4003 = alloca i32, align 4
  %i4097 = alloca i32, align 4
  %l_2216 = alloca i16, align 2
  %l_2265 = alloca i32, align 4
  %l_2272 = alloca i32, align 4
  %l_2273 = alloca i32, align 4
  %l_2317 = alloca i16, align 2
  %l_2372 = alloca [2 x [7 x [2 x i32]]], align 16
  %l_2374 = alloca i32, align 4
  %l_2390 = alloca i16, align 2
  %i4233 = alloca i32, align 4
  %j4234 = alloca i32, align 4
  %k4235 = alloca i32, align 4
  %l_2274 = alloca [7 x i32], align 16
  %l_2275 = alloca [2 x i32], align 4
  %i4240 = alloca i32, align 4
  %l_2316 = alloca i32, align 4
  %l_2319 = alloca [5 x i32], align 16
  %l_2337 = alloca [7 x i32], align 16
  %i4308 = alloca i32, align 4
  %i4365 = alloca i32, align 4
  %j4366 = alloca i32, align 4
  %k4367 = alloca i32, align 4
  %i4484 = alloca i32, align 4
  %j4485 = alloca i32, align 4
  %k4486 = alloca i32, align 4
  %l_2370 = alloca i16, align 2
  %l_2371 = alloca i32, align 4
  %l_2373 = alloca [10 x [5 x i32]], align 16
  %l_2396 = alloca i32, align 4
  %l_2407 = alloca [10 x [2 x [3 x i32]]], align 16
  %i4652 = alloca i32, align 4
  %j4653 = alloca i32, align 4
  %k4654 = alloca i32, align 4
  %l_2408 = alloca [10 x [2 x i32]], align 16
  %l_2413 = alloca i32, align 4
  %i4721 = alloca i32, align 4
  %j4722 = alloca i32, align 4
  %l_2395 = alloca i32, align 4
  %l_2416 = alloca i32, align 4
  %0 = bitcast [5 x [5 x [6 x i32]]]* %l_4 to i8*
  call void @llvm.memcpy.p0i8.p0i8.i64(i8* %0, i8* bitcast ([5 x [5 x [6 x i32]]]* @_ZZL6func_1vE3l_4 to i8*), i64 600, i32 16, i1 false)
  store i32 -1315234982, i32* %l_659, align 4
  store i32 -9, i32* %l_660, align 4
  store i32 3, i32* %l_676, align 4
  store i32 -1, i32* %l_704, align 4
  store i32 1387327434, i32* %l_820, align 4
  %1 = bitcast [9 x [3 x i32]]* %l_871 to i8*
  call void @llvm.memcpy.p0i8.p0i8.i64(i8* %1, i8* bitcast ([9 x [3 x i32]]* @_ZZL6func_1vE5l_871 to i8*), i64 108, i32 16, i1 false)
  store i32 -734747081, i32* %l_953, align 4
  store i32 -1, i32* %l_1100, align 4
  store i32 1545649513, i32* %l_1166, align 4
  store i32 -1553076418, i32* %l_1190, align 4
  store i16 1, i16* %l_1193, align 2
  store i32 -1, i32* %l_1258, align 4
  store i32 -367263005, i32* %l_1266, align 4
  store i32 -1, i32* %l_1300, align 4
  %2 = bitcast [2 x [8 x [5 x i32]]]* %l_1301 to i8*
  call void @llvm.memcpy.p0i8.p0i8.i64(i8* %2, i8* bitcast ([2 x [8 x [5 x i32]]]* @_ZZL6func_1vE6l_1301 to i8*), i64 320, i32 16, i1 false)
  %3 = bitcast [6 x i32]* %l_1449 to i8*
  call void @llvm.memcpy.p0i8.p0i8.i64(i8* %3, i8* bitcast ([6 x i32]* @_ZZL6func_1vE6l_1449 to i8*), i64 24, i32 16, i1 false)
  store i32 -1852051006, i32* %l_1589, align 4
  %4 = bitcast [6 x [4 x i16]]* %l_1628 to i8*
  call void @llvm.memcpy.p0i8.p0i8.i64(i8* %4, i8* bitcast ([6 x [4 x i16]]* @_ZZL6func_1vE6l_1628 to i8*), i64 48, i32 16, i1 false)
  store i16 -27843, i16* %l_1629, align 2
  store i32 -1, i32* %l_1688, align 4
  store i16 23106, i16* %l_1729, align 2
  store i32 1, i32* %l_1737, align 4
  %5 = bitcast [4 x [6 x [6 x i32]]]* %l_1891 to i8*
  call void @llvm.memcpy.p0i8.p0i8.i64(i8* %5, i8* bitcast ([4 x [6 x [6 x i32]]]* @_ZZL6func_1vE6l_1891 to i8*), i64 576, i32 16, i1 false)
  store i32 -1, i32* %l_1955, align 4
  store i32 0, i32* %l_2170, align 4
  store i32 1445153660, i32* %l_2181, align 4
  %6 = bitcast [6 x [10 x i32]]* %l_2217 to i8*
  call void @llvm.memcpy.p0i8.p0i8.i64(i8* %6, i8* bitcast ([6 x [10 x i32]]* @_ZZL6func_1vE6l_2217 to i8*), i64 240, i32 16, i1 false)
  store i32 3, i32* %l_2306, align 4
  store i32 8, i32* %l_2355, align 4
  store i32 426035435, i32* %l_2419, align 4
  store i32 0, i32* %i, align 4
  br label %for.cond

for.cond:                                         ; preds = %for.inc, %entry
  %7 = load i32* %i, align 4
  %cmp = icmp slt i32 %7, 5
  br i1 %cmp, label %for.body, label %for.end

for.body:                                         ; preds = %for.cond
  %8 = load i32* %i, align 4
  %idxprom = sext i32 %8 to i64
  %arrayidx = getelementptr inbounds [5 x i32]* %l_1370, i32 0, i64 %idxprom
  store i32 -1, i32* %arrayidx, align 4
  br label %for.inc

for.inc:                                          ; preds = %for.body
  %9 = load i32* %i, align 4
  %inc = add nsw i32 %9, 1
  store i32 %inc, i32* %i, align 4
  br label %for.cond

for.end:                                          ; preds = %for.cond
  store i32 0, i32* %i, align 4
  br label %for.cond1

for.cond1:                                        ; preds = %for.inc6, %for.end
  %10 = load i32* %i, align 4
  %cmp2 = icmp slt i32 %10, 6
  br i1 %cmp2, label %for.body3, label %for.end8

for.body3:                                        ; preds = %for.cond1
  %11 = load i32* %i, align 4
  %idxprom4 = sext i32 %11 to i64
  %arrayidx5 = getelementptr inbounds [6 x i32]* %l_1837, i32 0, i64 %idxprom4
  store i32 -1, i32* %arrayidx5, align 4
  br label %for.inc6

for.inc6:                                         ; preds = %for.body3
  %12 = load i32* %i, align 4
  %inc7 = add nsw i32 %12, 1
  store i32 %inc7, i32* %i, align 4
  br label %for.cond1

for.end8:                                         ; preds = %for.cond1
  store i32 0, i32* %i, align 4
  br label %for.cond9

for.cond9:                                        ; preds = %for.inc14, %for.end8
  %13 = load i32* %i, align 4
  %cmp10 = icmp slt i32 %13, 1
  br i1 %cmp10, label %for.body11, label %for.end16

for.body11:                                       ; preds = %for.cond9
  %14 = load i32* %i, align 4
  %idxprom12 = sext i32 %14 to i64
  %arrayidx13 = getelementptr inbounds [1 x i16]* %l_2215, i32 0, i64 %idxprom12
  store i16 -1, i16* %arrayidx13, align 2
  br label %for.inc14

for.inc14:                                        ; preds = %for.body11
  %15 = load i32* %i, align 4
  %inc15 = add nsw i32 %15, 1
  store i32 %inc15, i32* %i, align 4
  br label %for.cond9

for.end16:                                        ; preds = %for.cond9
  %16 = load i32* @_ZL3g_2, align 4
  %tobool = icmp ne i32 %16, 0
  br i1 %tobool, label %if.then, label %if.else

if.then:                                          ; preds = %for.end16
  store i32 622684660, i32* %l_3, align 4
  store i32 0, i32* %l_57, align 4
  %17 = bitcast [1 x [9 x i32]]* %l_59 to i8*
  call void @llvm.memcpy.p0i8.p0i8.i64(i8* %17, i8* bitcast ([1 x [9 x i32]]* @_ZZL6func_1vE4l_59 to i8*), i64 36, i32 16, i1 false)
  store i32 -3, i32* %l_63, align 4
  store i16 1590, i16* %l_661, align 2
  %18 = load i32* %l_3, align 4
  %arrayidx19 = getelementptr inbounds [5 x [5 x [6 x i32]]]* %l_4, i32 0, i64 3
  %arrayidx20 = getelementptr inbounds [5 x [6 x i32]]* %arrayidx19, i32 0, i64 4
  %arrayidx21 = getelementptr inbounds [6 x i32]* %arrayidx20, i32 0, i64 5
  %19 = load i32* %arrayidx21, align 4
  %and = and i32 %19, %18
  store i32 %and, i32* %arrayidx21, align 4
  store i32 0, i32* %l_3, align 4
  br label %for.cond22

for.cond22:                                       ; preds = %for.inc159, %if.then
  %20 = load i32* %l_3, align 4
  %cmp23 = icmp ule i32 %20, 11
  br i1 %cmp23, label %for.body24, label %for.end161

for.body24:                                       ; preds = %for.cond22
  store i32 0, i32* %l_7, align 4
  store i32 0, i32* %l_58, align 4
  store i32 1075092791, i32* %l_603, align 4
  store i32 0, i32* %l_7, align 4
  store i32 0, i32* @_ZL3g_2, align 4
  br label %for.cond25

for.cond25:                                       ; preds = %for.inc28, %for.body24
  %21 = load i32* @_ZL3g_2, align 4
  %cmp26 = icmp sge i32 %21, 5
  br i1 %cmp26, label %for.body27, label %for.end30

for.body27:                                       ; preds = %for.cond25
  %22 = load i32* @_ZL3g_2, align 4
  store i32 %22, i32* %retval
  br label %return

for.inc28:                                        ; No predecessors!
  %23 = load i32* @_ZL3g_2, align 4
  %inc29 = add nsw i32 %23, 1
  store i32 %inc29, i32* @_ZL3g_2, align 4
  br label %for.cond25

for.end30:                                        ; preds = %for.cond25
  %24 = load i32* %l_3, align 4
  %25 = load i32* %l_3, align 4
  %tobool31 = icmp ne i32 %25, 0
  %conv = zext i1 %tobool31 to i16
  %26 = load i32* @_ZL3g_2, align 4
  %27 = load i32* @_ZL4g_33, align 4
  %or = or i32 %27, %26
  store i32 %or, i32* @_ZL4g_33, align 4
  %conv32 = trunc i32 %or to i16
  %28 = load i32* %l_7, align 4
  %call = call zeroext i16 @_ZL29safe_lshift_func_uint16_t_u_utj(i16 zeroext %conv32, i32 %28)
  %conv33 = zext i16 %call to i32
  %29 = load i32* %l_7, align 4
  store i32 %29, i32* @_ZL4g_36, align 4
  %conv34 = trunc i32 %29 to i16
  %call35 = call i32 @_ZL7func_34t(i16 zeroext %conv34)
  %call36 = call i32 @_ZL25safe_div_func_int32_t_s_sii(i32 %conv33, i32 %call35)
  %conv37 = trunc i32 %call36 to i16
  %30 = load i32* @_ZL3g_2, align 4
  %31 = load i16* @_ZL4g_60, align 2
  %dec = add i16 %31, -1
  store i16 %dec, i16* @_ZL4g_60, align 2
  %32 = load i32* %l_58, align 4
  %conv38 = trunc i32 %32 to i16
  %call39 = call zeroext i16 @_ZL26safe_div_func_uint16_t_u_utt(i16 zeroext %31, i16 zeroext %conv38)
  %33 = load i32* @_ZL3g_2, align 4
  %conv40 = trunc i32 %33 to i16
  %call41 = call zeroext i16 @_ZL26safe_mod_func_uint16_t_u_utt(i16 zeroext %call39, i16 zeroext %conv40)
  %conv42 = zext i16 %call41 to i32
  %34 = load i32* %l_63, align 4
  %xor = xor i32 %conv42, %34
  %cmp43 = icmp ne i32 %30, %xor
  %conv44 = zext i1 %cmp43 to i32
  %call45 = call zeroext i16 @_ZL29safe_rshift_func_uint16_t_u_utj(i16 zeroext %conv37, i32 %conv44)
  %35 = load i32* %l_58, align 4
  %call46 = call zeroext i16 @_ZL29safe_lshift_func_uint16_t_u_utj(i16 zeroext %call45, i32 %35)
  %conv47 = zext i16 %call46 to i32
  %36 = load i32* %l_7, align 4
  %cmp48 = icmp uge i32 %conv47, %36
  %conv49 = zext i1 %cmp48 to i32
  %arrayidx50 = getelementptr inbounds [1 x [9 x i32]]* %l_59, i32 0, i64 0
  %arrayidx51 = getelementptr inbounds [9 x i32]* %arrayidx50, i32 0, i64 1
  store i32 %conv49, i32* %arrayidx51, align 4
  %conv52 = trunc i32 %conv49 to i16
  %arrayidx53 = getelementptr inbounds [5 x [5 x [6 x i32]]]* %l_4, i32 0, i64 3
  %arrayidx54 = getelementptr inbounds [5 x [6 x i32]]* %arrayidx53, i32 0, i64 4
  %arrayidx55 = getelementptr inbounds [6 x i32]* %arrayidx54, i32 0, i64 5
  %37 = load i32* %arrayidx55, align 4
  %conv56 = trunc i32 %37 to i16
  %38 = load i32* %l_58, align 4
  %call57 = call i32 @_ZL7func_21tsj(i16 zeroext %conv52, i16 signext %conv56, i32 %38)
  %arrayidx58 = getelementptr inbounds [5 x [5 x [6 x i32]]]* %l_4, i32 0, i64 2
  %arrayidx59 = getelementptr inbounds [5 x [6 x i32]]* %arrayidx58, i32 0, i64 2
  %arrayidx60 = getelementptr inbounds [6 x i32]* %arrayidx59, i32 0, i64 2
  %39 = load i32* %arrayidx60, align 4
  %call61 = call i32 @_ZL7func_16jtjj(i32 %24, i16 zeroext %conv, i32 %call57, i32 %39)
  %40 = load i32* @_ZL5g_398, align 4
  %41 = load i32* @_ZL5g_398, align 4
  %call62 = call zeroext i16 @_ZL7func_12jii(i32 %call61, i32 %40, i32 %41)
  %conv63 = zext i16 %call62 to i32
  store i32 %conv63, i32* %l_603, align 4
  %conv64 = trunc i32 %conv63 to i16
  %call65 = call i32 @_ZL7func_10t(i16 zeroext %conv64)
  %42 = load i32* @_ZL5g_622, align 4
  %or66 = or i32 %42, %call65
  store i32 %or66, i32* @_ZL5g_622, align 4
  %43 = load i32* %l_63, align 4
  %arrayidx67 = getelementptr inbounds [5 x [5 x [6 x i32]]]* %l_4, i32 0, i64 4
  %arrayidx68 = getelementptr inbounds [5 x [6 x i32]]* %arrayidx67, i32 0, i64 2
  %arrayidx69 = getelementptr inbounds [6 x i32]* %arrayidx68, i32 0, i64 0
  %44 = load i32* %arrayidx69, align 4
  %45 = load i32* @_ZL4g_48, align 4
  %46 = load i32* @_ZL4g_33, align 4
  %conv70 = trunc i32 %46 to i16
  store i16 %conv70, i16* @_ZL4g_46, align 2
  %tobool71 = icmp ne i16 %conv70, 0
  %lnot = xor i1 %tobool71, true
  %conv72 = zext i1 %lnot to i32
  store i32 %conv72, i32* @_ZL5g_396, align 4
  %47 = load i32* %l_603, align 4
  %48 = load i32* %l_603, align 4
  %49 = load i32* %l_659, align 4
  %arrayidx73 = getelementptr inbounds [5 x [5 x [6 x i32]]]* %l_4, i32 0, i64 3
  %arrayidx74 = getelementptr inbounds [5 x [6 x i32]]* %arrayidx73, i32 0, i64 3
  %arrayidx75 = getelementptr inbounds [6 x i32]* %arrayidx74, i32 0, i64 1
  %50 = load i32* %arrayidx75, align 4
  %cmp76 = icmp slt i32 %49, %50
  %conv77 = zext i1 %cmp76 to i32
  %cmp78 = icmp eq i32 %48, %conv77
  %conv79 = zext i1 %cmp78 to i32
  %call80 = call i32 @_ZL26safe_div_func_uint32_t_u_ujj(i32 %conv79, i32 1)
  %51 = load i16* @_ZL5g_394, align 2
  %conv81 = zext i16 %51 to i32
  %xor82 = xor i32 %conv81, %call80
  %conv83 = trunc i32 %xor82 to i16
  store i16 %conv83, i16* @_ZL5g_394, align 2
  %52 = load i32* %l_659, align 4
  %conv84 = trunc i32 %52 to i16
  %call85 = call zeroext i16 @_ZL26safe_mod_func_uint16_t_u_utt(i16 zeroext %conv83, i16 zeroext %conv84)
  %conv86 = zext i16 %call85 to i32
  %arrayidx87 = getelementptr inbounds [1 x [9 x i32]]* %l_59, i32 0, i64 0
  %arrayidx88 = getelementptr inbounds [9 x i32]* %arrayidx87, i32 0, i64 4
  %53 = load i32* %arrayidx88, align 4
  %cmp89 = icmp sgt i32 %conv86, %53
  %conv90 = zext i1 %cmp89 to i32
  %or91 = or i32 %47, %conv90
  %call92 = call zeroext i16 @_ZL29safe_lshift_func_uint16_t_u_utj(i16 zeroext 12685, i32 %or91)
  %call93 = call signext i16 @_ZL28safe_lshift_func_int16_t_s_usj(i16 signext %call92, i32 1)
  %conv94 = sext i16 %call93 to i32
  %call95 = call i32 @_ZL26safe_add_func_uint32_t_u_ujj(i32 1, i32 %conv94)
  %conv96 = trunc i32 %call95 to i16
  %54 = load i32* %l_603, align 4
  %conv97 = trunc i32 %54 to i16
  %call98 = call signext i16 @_ZL25safe_sub_func_int16_t_s_sss(i16 signext %conv96, i16 signext %conv97)
  %conv99 = sext i16 %call98 to i32
  %55 = load i16* @_ZL4g_56, align 2
  %conv100 = sext i16 %55 to i32
  %xor101 = xor i32 %conv100, %conv99
  %conv102 = trunc i32 %xor101 to i16
  store i16 %conv102, i16* @_ZL4g_56, align 2
  %call103 = call signext i16 @_ZL25safe_div_func_int16_t_s_sss(i16 signext %conv102, i16 signext -1)
  %conv104 = sext i16 %call103 to i32
  %arrayidx105 = getelementptr inbounds [1 x [9 x i32]]* %l_59, i32 0, i64 0
  %arrayidx106 = getelementptr inbounds [9 x i32]* %arrayidx105, i32 0, i64 1
  %56 = load i32* %arrayidx106, align 4
  %call107 = call i32 @_ZL25safe_div_func_int32_t_s_sii(i32 %conv104, i32 %56)
  %conv108 = trunc i32 %call107 to i16
  %57 = load i32* %l_603, align 4
  %call109 = call zeroext i16 @_ZL29safe_lshift_func_uint16_t_u_sti(i16 zeroext %conv108, i32 %57)
  %tobool110 = icmp ne i16 %call109, 0
  br i1 %tobool110, label %lor.end, label %lor.rhs

lor.rhs:                                          ; preds = %for.end30
  br label %lor.end

lor.end:                                          ; preds = %lor.rhs, %for.end30
  %58 = phi i1 [ true, %for.end30 ], [ true, %lor.rhs ]
  %conv111 = zext i1 %58 to i32
  %call112 = call i32 @_ZL26safe_mod_func_uint32_t_u_ujj(i32 %conv111, i32 -9)
  %xor113 = xor i32 %call112, 3
  %conv114 = trunc i32 %xor113 to i16
  %59 = load i32* @_ZL4g_33, align 4
  %conv115 = trunc i32 %59 to i16
  %call116 = call signext i16 @_ZL25safe_sub_func_int16_t_s_sss(i16 signext %conv114, i16 signext %conv115)
  %conv117 = sext i16 %call116 to i32
  %cmp118 = icmp sle i32 %conv117, 1
  %conv119 = zext i1 %cmp118 to i16
  %60 = load i32* %l_58, align 4
  %call120 = call zeroext i16 @_ZL29safe_rshift_func_uint16_t_u_utj(i16 zeroext %conv119, i32 %60)
  %conv121 = zext i16 %call120 to i32
  %61 = load i32* %l_660, align 4
  %and122 = and i32 %61, %conv121
  store i32 %and122, i32* %l_660, align 4
  %cmp123 = icmp eq i32 %conv72, %and122
  %conv124 = zext i1 %cmp123 to i32
  %arrayidx125 = getelementptr inbounds [5 x [5 x [6 x i32]]]* %l_4, i32 0, i64 3
  %arrayidx126 = getelementptr inbounds [5 x [6 x i32]]* %arrayidx125, i32 0, i64 4
  %arrayidx127 = getelementptr inbounds [6 x i32]* %arrayidx126, i32 0, i64 5
  %62 = load i32* %arrayidx127, align 4
  %cmp128 = icmp sge i32 %conv124, %62
  %conv129 = zext i1 %cmp128 to i16
  %call130 = call zeroext i16 @_ZL32safe_unary_minus_func_uint16_t_ut(i16 zeroext %conv129)
  %conv131 = zext i16 %call130 to i32
  %cmp132 = icmp ne i32 %45, %conv131
  %conv133 = zext i1 %cmp132 to i32
  %xor134 = xor i32 %44, %conv133
  %63 = load i16* %l_661, align 2
  %conv135 = zext i16 %63 to i32
  %xor136 = xor i32 %xor134, %conv135
  %64 = load i16* %l_661, align 2
  %conv137 = zext i16 %64 to i32
  %or138 = or i32 %xor136, %conv137
  %call139 = call i32 @_ZL25safe_sub_func_int32_t_s_sii(i32 %43, i32 %or138)
  %arrayidx140 = getelementptr inbounds [1 x [9 x i32]]* %l_59, i32 0, i64 0
  %arrayidx141 = getelementptr inbounds [9 x i32]* %arrayidx140, i32 0, i64 1
  %65 = load i32* %arrayidx141, align 4
  %cmp142 = icmp sle i32 %call139, %65
  %conv143 = zext i1 %cmp142 to i16
  %arrayidx144 = getelementptr inbounds [5 x [5 x [6 x i32]]]* %l_4, i32 0, i64 1
  %arrayidx145 = getelementptr inbounds [5 x [6 x i32]]* %arrayidx144, i32 0, i64 2
  %arrayidx146 = getelementptr inbounds [6 x i32]* %arrayidx145, i32 0, i64 4
  %66 = load i32* %arrayidx146, align 4
  %conv147 = trunc i32 %66 to i16
  %call148 = call signext i16 @_ZL25safe_add_func_int16_t_s_sss(i16 signext %conv143, i16 signext %conv147)
  %call149 = call signext i16 @_ZL25safe_div_func_int16_t_s_sss(i16 signext %call148, i16 signext 1)
  %tobool150 = icmp ne i16 %call149, 0
  br i1 %tobool150, label %land.rhs, label %land.end

land.rhs:                                         ; preds = %lor.end
  %67 = load i32* %l_603, align 4
  %tobool151 = icmp ne i32 %67, 0
  br label %land.end

land.end:                                         ; preds = %land.rhs, %lor.end
  %68 = phi i1 [ false, %lor.end ], [ %tobool151, %land.rhs ]
  %conv152 = zext i1 %68 to i32
  %69 = load i32* %l_7, align 4
  %cmp153 = icmp ult i32 %conv152, %69
  %conv154 = zext i1 %cmp153 to i16
  %70 = load i16* %l_661, align 2
  %call155 = call zeroext i16 @_ZL26safe_mod_func_uint16_t_u_utt(i16 zeroext %conv154, i16 zeroext %70)
  %call156 = call zeroext i16 @_ZL26safe_sub_func_uint16_t_u_utt(i16 zeroext %call155, i16 zeroext 21138)
  %conv157 = zext i16 %call156 to i32
  %71 = load i32* getelementptr inbounds ([10 x [5 x i32]]* @_ZL4g_49, i32 0, i64 8, i64 2), align 4
  %and158 = and i32 %71, %conv157
  store i32 %and158, i32* getelementptr inbounds ([10 x [5 x i32]]* @_ZL4g_49, i32 0, i64 8, i64 2), align 4
  br label %for.inc159

for.inc159:                                       ; preds = %land.end
  %72 = load i32* %l_3, align 4
  %call160 = call i32 @_ZL25safe_add_func_int32_t_s_sii(i32 %72, i32 1)
  store i32 %call160, i32* %l_3, align 4
  br label %for.cond22

for.end161:                                       ; preds = %for.cond22
  br label %if.end2657

if.else:                                          ; preds = %for.end16
  store i16 7361, i16* %l_662, align 2
  store i16 -1, i16* %l_679, align 2
  store i32 1, i32* %l_730, align 4
  %73 = bitcast [4 x i16]* %l_858 to i8*
  call void @llvm.memcpy.p0i8.p0i8.i64(i8* %73, i8* bitcast ([4 x i16]* @_ZZL6func_1vE5l_858 to i8*), i64 8, i32 2, i1 false)
  store i32 -1506166480, i32* %l_987, align 4
  store i32 2, i32* %l_1031, align 4
  store i32 503961690, i32* %l_1173, align 4
  store i32 740576033, i32* %l_1197, align 4
  %74 = bitcast [10 x i32]* %l_1249 to i8*
  call void @llvm.memset.p0i8.i64(i8* %74, i8 0, i64 40, i32 16, i1 false)
  %75 = bitcast i8* %74 to [10 x i32]*
  %76 = getelementptr [10 x i32]* %75, i32 0, i32 1
  store i32 1, i32* %76
  %77 = getelementptr [10 x i32]* %75, i32 0, i32 2
  store i32 1, i32* %77
  %78 = getelementptr [10 x i32]* %75, i32 0, i32 4
  store i32 1, i32* %78
  %79 = getelementptr [10 x i32]* %75, i32 0, i32 5
  store i32 1, i32* %79
  %80 = getelementptr [10 x i32]* %75, i32 0, i32 7
  store i32 1, i32* %80
  %81 = getelementptr [10 x i32]* %75, i32 0, i32 8
  store i32 1, i32* %81
  %82 = bitcast [6 x [4 x i16]]* %l_1503 to i8*
  call void @llvm.memcpy.p0i8.p0i8.i64(i8* %82, i8* bitcast ([6 x [4 x i16]]* @_ZZL6func_1vE6l_1503 to i8*), i64 48, i32 16, i1 false)
  store i16 6, i16* %l_1591, align 2
  store i32 1988974391, i32* %l_1613, align 4
  br label %lbl_873

lbl_873:                                          ; preds = %if.then1737, %if.then990, %if.then711, %if.else
  %83 = load i16* %l_662, align 2
  %tobool164 = icmp ne i16 %83, 0
  br i1 %tobool164, label %land.rhs165, label %land.end207

land.rhs165:                                      ; preds = %lbl_873
  %84 = load i32* @_ZL5g_166, align 4
  %conv166 = trunc i32 %84 to i16
  %call167 = call zeroext i16 @_ZL26safe_add_func_uint16_t_u_utt(i16 zeroext %conv166, i16 zeroext 0)
  %tobool168 = icmp ne i16 %call167, 0
  br i1 %tobool168, label %land.rhs169, label %land.end199

land.rhs169:                                      ; preds = %land.rhs165
  %85 = load i16* %l_662, align 2
  %86 = load volatile i16* @_ZL5g_277, align 2
  %conv170 = zext i16 %86 to i32
  %call171 = call zeroext i16 @_ZL29safe_lshift_func_uint16_t_u_sti(i16 zeroext %85, i32 %conv170)
  store i16 11667, i16* @_ZL4g_60, align 2
  store i32 -11668, i32* %l_676, align 4
  %87 = load i16* %l_662, align 2
  %conv172 = sext i16 %87 to i32
  %cmp173 = icmp sgt i32 -11668, %conv172
  %conv174 = zext i1 %cmp173 to i32
  %88 = load i32* %l_660, align 4
  %and175 = and i32 0, %88
  %conv176 = trunc i32 %and175 to i16
  %call177 = call signext i16 @_ZL25safe_sub_func_int16_t_s_sss(i16 signext 1, i16 signext %conv176)
  %conv178 = sext i16 %call177 to i32
  %and179 = and i32 %conv174, %conv178
  %89 = load i16* %l_662, align 2
  %conv180 = sext i16 %89 to i32
  %cmp181 = icmp ne i32 %and179, %conv180
  %conv182 = zext i1 %cmp181 to i32
  %arrayidx183 = getelementptr inbounds [5 x [5 x [6 x i32]]]* %l_4, i32 0, i64 2
  %arrayidx184 = getelementptr inbounds [5 x [6 x i32]]* %arrayidx183, i32 0, i64 0
  %arrayidx185 = getelementptr inbounds [6 x i32]* %arrayidx184, i32 0, i64 0
  %90 = load i32* %arrayidx185, align 4
  %xor186 = xor i32 %conv182, %90
  %91 = load i32* @_ZL5g_622, align 4
  %cmp187 = icmp eq i32 %xor186, %91
  %conv188 = zext i1 %cmp187 to i32
  %92 = load i16* %l_679, align 2
  %conv189 = zext i16 %92 to i32
  %cmp190 = icmp slt i32 %conv188, %conv189
  %conv191 = zext i1 %cmp190 to i32
  %93 = load i32* %l_659, align 4
  %cmp192 = icmp eq i32 %conv191, %93
  %conv193 = zext i1 %cmp192 to i16
  %94 = load i32* @_ZL4g_36, align 4
  %call194 = call signext i16 @_ZL28safe_rshift_func_int16_t_s_ssi(i16 signext %conv193, i32 %94)
  %conv195 = sext i16 %call194 to i32
  %call196 = call signext i16 @_ZL28safe_lshift_func_int16_t_s_ssi(i16 signext %call171, i32 %conv195)
  %conv197 = sext i16 %call196 to i32
  %95 = load i32* %l_660, align 4
  %cmp198 = icmp sge i32 %conv197, %95
  br label %land.end199

land.end199:                                      ; preds = %land.rhs169, %land.rhs165
  %96 = phi i1 [ false, %land.rhs165 ], [ %cmp198, %land.rhs169 ]
  %conv200 = zext i1 %96 to i32
  %cmp201 = icmp sge i32 %conv200, 1997
  %conv202 = zext i1 %cmp201 to i32
  %cmp203 = icmp ugt i32 %conv202, 0
  %conv204 = zext i1 %cmp203 to i32
  %97 = load i32* @_ZL5g_398, align 4
  %call205 = call i32 @_ZL26safe_add_func_uint32_t_u_ujj(i32 %conv204, i32 %97)
  %tobool206 = icmp ne i32 %call205, 0
  br label %land.end207

land.end207:                                      ; preds = %land.end199, %lbl_873
  %98 = phi i1 [ false, %lbl_873 ], [ %tobool206, %land.end199 ]
  %conv208 = zext i1 %98 to i32
  %arrayidx209 = getelementptr inbounds [5 x [5 x [6 x i32]]]* %l_4, i32 0, i64 2
  %arrayidx210 = getelementptr inbounds [5 x [6 x i32]]* %arrayidx209, i32 0, i64 0
  %arrayidx211 = getelementptr inbounds [6 x i32]* %arrayidx210, i32 0, i64 4
  store i32 %conv208, i32* %arrayidx211, align 4
  store i32 0, i32* %l_676, align 4
  br label %for.cond212

for.cond212:                                      ; preds = %for.inc1652, %land.end207
  %99 = load i32* %l_676, align 4
  %cmp213 = icmp sle i32 %99, 0
  br i1 %cmp213, label %for.body214, label %for.end1654

for.body214:                                      ; preds = %for.cond212
  store i16 1, i16* %l_688, align 2
  store i32 5, i32* %l_703, align 4
  store i32 -1645967106, i32* %l_826, align 4
  store i32 -4, i32* %l_861, align 4
  store i16 4, i16* %l_1073, align 2
  store i16 0, i16* %l_1124, align 2
  store i32 -1, i32* %l_1251, align 4
  store i32 -1, i32* %l_1253, align 4
  store i32 1112764957, i32* %l_1256, align 4
  store i32 -335843719, i32* %l_1257, align 4
  store i32 0, i32* %i215, align 4
  br label %for.cond216

for.cond216:                                      ; preds = %for.inc221, %for.body214
  %100 = load i32* %i215, align 4
  %cmp217 = icmp slt i32 %100, 3
  br i1 %cmp217, label %for.body218, label %for.end223

for.body218:                                      ; preds = %for.cond216
  %101 = load i32* %i215, align 4
  %idxprom219 = sext i32 %101 to i64
  %arrayidx220 = getelementptr inbounds [3 x i16]* %l_904, i32 0, i64 %idxprom219
  store i16 -8, i16* %arrayidx220, align 2
  br label %for.inc221

for.inc221:                                       ; preds = %for.body218
  %102 = load i32* %i215, align 4
  %inc222 = add nsw i32 %102, 1
  store i32 %inc222, i32* %i215, align 4
  br label %for.cond216

for.end223:                                       ; preds = %for.cond216
  %103 = load i16* %l_662, align 2
  %104 = load i16* %l_679, align 2
  %conv224 = zext i16 %104 to i32
  %105 = load volatile i16* @_ZL5g_277, align 2
  %conv225 = zext i16 %105 to i32
  %xor226 = xor i32 %conv224, %conv225
  store i32 %xor226, i32* @_ZL4g_55, align 4
  %106 = load i32* @_ZL4g_48, align 4
  %and227 = and i32 %106, %xor226
  store i32 %and227, i32* @_ZL4g_48, align 4
  %tobool228 = icmp ne i32 %and227, 0
  br i1 %tobool228, label %lor.end279, label %lor.rhs229

lor.rhs229:                                       ; preds = %for.end223
  %107 = load i16* %l_688, align 2
  %conv230 = sext i16 %107 to i32
  %arrayidx231 = getelementptr inbounds [5 x [5 x [6 x i32]]]* %l_4, i32 0, i64 2
  %arrayidx232 = getelementptr inbounds [5 x [6 x i32]]* %arrayidx231, i32 0, i64 3
  %arrayidx233 = getelementptr inbounds [6 x i32]* %arrayidx232, i32 0, i64 5
  %108 = load i32* %arrayidx233, align 4
  %conv234 = trunc i32 %108 to i16
  %call235 = call zeroext i16 @_ZL29safe_rshift_func_uint16_t_u_utj(i16 zeroext 8431, i32 15)
  %call236 = call signext i16 @_ZL25safe_sub_func_int16_t_s_sss(i16 signext %conv234, i16 signext %call235)
  %109 = load i16* @_ZL4g_60, align 2
  %conv237 = zext i16 %109 to i32
  %110 = load i16* %l_688, align 2
  %conv238 = sext i16 %110 to i32
  %cmp239 = icmp slt i32 %conv238, 412
  %conv240 = zext i1 %cmp239 to i32
  %111 = load i32* @_ZL4g_55, align 4
  %call241 = call i32 @_ZL26safe_add_func_uint32_t_u_ujj(i32 %conv240, i32 %111)
  %tobool242 = icmp ne i32 %call241, 0
  br i1 %tobool242, label %land.rhs243, label %land.end244

land.rhs243:                                      ; preds = %lor.rhs229
  br label %land.end244

land.end244:                                      ; preds = %land.rhs243, %lor.rhs229
  %112 = phi i1 [ false, %lor.rhs229 ], [ true, %land.rhs243 ]
  %conv245 = zext i1 %112 to i32
  %arrayidx246 = getelementptr inbounds [5 x [5 x [6 x i32]]]* %l_4, i32 0, i64 1
  %arrayidx247 = getelementptr inbounds [5 x [6 x i32]]* %arrayidx246, i32 0, i64 1
  %arrayidx248 = getelementptr inbounds [6 x i32]* %arrayidx247, i32 0, i64 5
  %113 = load i32* %arrayidx248, align 4
  %cmp249 = icmp sle i32 %conv245, %113
  %conv250 = zext i1 %cmp249 to i16
  %114 = load volatile i32* getelementptr inbounds ([5 x [1 x [2 x i32]]]* @_ZL5g_577, i32 0, i64 3, i64 0, i64 1), align 4
  %conv251 = trunc i32 %114 to i16
  %call252 = call signext i16 @_ZL25safe_sub_func_int16_t_s_sss(i16 signext %conv250, i16 signext %conv251)
  %conv253 = sext i16 %call252 to i32
  %cmp254 = icmp slt i32 %conv237, %conv253
  br i1 %cmp254, label %lor.end256, label %lor.rhs255

lor.rhs255:                                       ; preds = %land.end244
  br label %lor.end256

lor.end256:                                       ; preds = %lor.rhs255, %land.end244
  %115 = phi i1 [ true, %land.end244 ], [ true, %lor.rhs255 ]
  %conv257 = zext i1 %115 to i32
  %116 = load i32* %l_703, align 4
  %or258 = or i32 %116, %conv257
  store i32 %or258, i32* %l_703, align 4
  %tobool259 = icmp ne i32 %or258, 0
  br i1 %tobool259, label %lor.end262, label %lor.rhs260

lor.rhs260:                                       ; preds = %lor.end256
  %117 = load i32* @_ZL4g_33, align 4
  %tobool261 = icmp ne i32 %117, 0
  br label %lor.end262

lor.end262:                                       ; preds = %lor.rhs260, %lor.end256
  %118 = phi i1 [ true, %lor.end256 ], [ %tobool261, %lor.rhs260 ]
  %conv263 = zext i1 %118 to i32
  %119 = load i16* %l_679, align 2
  %conv264 = zext i16 %119 to i32
  %call265 = call i32 @_ZL25safe_div_func_int32_t_s_sii(i32 %conv263, i32 %conv264)
  %120 = load i16* @_ZL4g_46, align 2
  %conv266 = sext i16 %120 to i32
  %cmp267 = icmp ne i32 %call265, %conv266
  %conv268 = zext i1 %cmp267 to i16
  %121 = load i16* %l_679, align 2
  %call269 = call zeroext i16 @_ZL26safe_add_func_uint16_t_u_utt(i16 zeroext %conv268, i16 zeroext %121)
  %tobool270 = icmp ne i16 %call269, 0
  br i1 %tobool270, label %lor.end273, label %lor.rhs271

lor.rhs271:                                       ; preds = %lor.end262
  %122 = load i32* %l_703, align 4
  %tobool272 = icmp ne i32 %122, 0
  br label %lor.end273

lor.end273:                                       ; preds = %lor.rhs271, %lor.end262
  %123 = phi i1 [ true, %lor.end262 ], [ %tobool272, %lor.rhs271 ]
  %conv274 = zext i1 %123 to i16
  %call275 = call zeroext i16 @_ZL26safe_sub_func_uint16_t_u_utt(i16 zeroext %call236, i16 zeroext %conv274)
  %conv276 = zext i16 %call275 to i32
  %call277 = call i32 @_ZL25safe_add_func_int32_t_s_sii(i32 %conv230, i32 %conv276)
  %tobool278 = icmp ne i32 %call277, 0
  br label %lor.end279

lor.end279:                                       ; preds = %lor.end273, %for.end223
  %124 = phi i1 [ true, %for.end223 ], [ %tobool278, %lor.end273 ]
  %conv280 = zext i1 %124 to i16
  %call281 = call signext i16 @_ZL25safe_sub_func_int16_t_s_sss(i16 signext %103, i16 signext %conv280)
  %125 = load i32* getelementptr inbounds ([10 x [5 x i32]]* @_ZL4g_49, i32 0, i64 2, i64 0), align 4
  %conv282 = trunc i32 %125 to i16
  %call283 = call zeroext i16 @_ZL26safe_add_func_uint16_t_u_utt(i16 zeroext %call281, i16 zeroext %conv282)
  %126 = load i32* getelementptr inbounds ([10 x [5 x i32]]* @_ZL4g_49, i32 0, i64 3, i64 3), align 4
  %call284 = call zeroext i16 @_ZL29safe_lshift_func_uint16_t_u_sti(i16 zeroext %call283, i32 %126)
  %conv285 = zext i16 %call284 to i32
  %cmp286 = icmp ult i32 %conv285, 65535
  %conv287 = zext i1 %cmp286 to i32
  %127 = load i32* %l_704, align 4
  %cmp288 = icmp ne i32 %conv287, %127
  br i1 %cmp288, label %if.then289, label %if.else364

if.then289:                                       ; preds = %lor.end279
  %128 = bitcast [10 x i32]* %l_725 to i8*
  call void @llvm.memcpy.p0i8.p0i8.i64(i8* %128, i8* bitcast ([10 x i32]* @_ZZL6func_1vE5l_725 to i8*), i64 40, i32 16, i1 false)
  %129 = load i32* @_ZL5g_398, align 4
  %130 = load i16* @_ZL4g_56, align 2
  %conv291 = sext i16 %130 to i32
  %131 = load i16* @_ZL4g_46, align 2
  %conv292 = sext i16 %131 to i32
  %or293 = or i32 %conv292, %conv291
  %conv294 = trunc i32 %or293 to i16
  store i16 %conv294, i16* @_ZL4g_46, align 2
  %conv295 = sext i16 %conv294 to i32
  %call296 = call signext i16 @_ZL28safe_lshift_func_int16_t_s_ssi(i16 signext -9110, i32 %conv295)
  %conv297 = sext i16 %call296 to i32
  %132 = load i32* @_ZL3g_2, align 4
  %or298 = or i32 %132, %conv297
  store i32 %or298, i32* @_ZL3g_2, align 4
  %cmp299 = icmp ugt i32 %129, %or298
  %conv300 = zext i1 %cmp299 to i16
  %133 = load i16* %l_662, align 2
  %tobool301 = icmp ne i16 %133, 0
  br i1 %tobool301, label %lor.end328, label %lor.rhs302

lor.rhs302:                                       ; preds = %if.then289
  %arrayidx303 = getelementptr inbounds [10 x i32]* %l_725, i32 0, i64 2
  %134 = load i32* %arrayidx303, align 4
  %conv304 = trunc i32 %134 to i16
  %135 = load i32* @_ZL4g_55, align 4
  %cmp305 = icmp sgt i32 %135, 0
  %conv306 = zext i1 %cmp305 to i32
  %cmp307 = icmp ne i32 1, %conv306
  %conv308 = zext i1 %cmp307 to i32
  %136 = load i16* @_ZL4g_60, align 2
  %conv309 = zext i16 %136 to i32
  %cmp310 = icmp sge i32 %conv308, %conv309
  %conv311 = zext i1 %cmp310 to i16
  %call312 = call signext i16 @_ZL25safe_mul_func_int16_t_s_sss(i16 signext %conv311, i16 signext -16141)
  %conv313 = sext i16 %call312 to i32
  %arrayidx314 = getelementptr inbounds [5 x [5 x [6 x i32]]]* %l_4, i32 0, i64 3
  %arrayidx315 = getelementptr inbounds [5 x [6 x i32]]* %arrayidx314, i32 0, i64 4
  %arrayidx316 = getelementptr inbounds [6 x i32]* %arrayidx315, i32 0, i64 5
  %137 = load i32* %arrayidx316, align 4
  %or317 = or i32 %137, %conv313
  store i32 %or317, i32* %arrayidx316, align 4
  %arrayidx318 = getelementptr inbounds [10 x i32]* %l_725, i32 0, i64 2
  %138 = load i32* %arrayidx318, align 4
  %cmp319 = icmp sge i32 %or317, %138
  %conv320 = zext i1 %cmp319 to i16
  %call321 = call zeroext i16 @_ZL26safe_add_func_uint16_t_u_utt(i16 zeroext %conv304, i16 zeroext %conv320)
  %139 = load volatile i16* @_ZL5g_277, align 2
  %call322 = call zeroext i16 @_ZL26safe_div_func_uint16_t_u_utt(i16 zeroext %call321, i16 zeroext %139)
  %conv323 = zext i16 %call322 to i32
  %140 = load i32* @_ZL5g_396, align 4
  %cmp324 = icmp ugt i32 %conv323, %140
  %conv325 = zext i1 %cmp324 to i16
  %call326 = call signext i16 @_ZL31safe_unary_minus_func_int16_t_ss(i16 signext %conv325)
  %tobool327 = icmp ne i16 %call326, 0
  br label %lor.end328

lor.end328:                                       ; preds = %lor.rhs302, %if.then289
  %141 = phi i1 [ true, %if.then289 ], [ %tobool327, %lor.rhs302 ]
  %conv329 = zext i1 %141 to i32
  %cmp330 = icmp sle i32 -3, %conv329
  %conv331 = zext i1 %cmp330 to i16
  %call332 = call signext i16 @_ZL25safe_mod_func_int16_t_s_sss(i16 signext %conv331, i16 signext -6851)
  %conv333 = sext i16 %call332 to i32
  %142 = load i32* %l_730, align 4
  %or334 = or i32 %142, %conv333
  store i32 %or334, i32* %l_730, align 4
  %conv335 = trunc i32 %or334 to i16
  %call336 = call zeroext i16 @_ZL26safe_mul_func_uint16_t_u_utt(i16 zeroext %conv300, i16 zeroext %conv335)
  %143 = load i16* @_ZL5g_394, align 2
  %call337 = call zeroext i16 @_ZL26safe_mul_func_uint16_t_u_utt(i16 zeroext %call336, i16 zeroext %143)
  %conv338 = zext i16 %call337 to i32
  %144 = load i32* @_ZL5g_615, align 4
  %xor339 = xor i32 %conv338, %144
  %145 = load i16* %l_679, align 2
  %conv340 = zext i16 %145 to i32
  %cmp341 = icmp ne i32 %xor339, %conv340
  %conv342 = zext i1 %cmp341 to i16
  %146 = load i32* %l_704, align 4
  %conv343 = trunc i32 %146 to i16
  %call344 = call zeroext i16 @_ZL26safe_sub_func_uint16_t_u_utt(i16 zeroext %conv342, i16 zeroext %conv343)
  %147 = load i32* @_ZL5g_615, align 4
  %conv345 = trunc i32 %147 to i16
  %call346 = call zeroext i16 @_ZL26safe_mul_func_uint16_t_u_utt(i16 zeroext %call344, i16 zeroext %conv345)
  %conv347 = zext i16 %call346 to i32
  %148 = load i16* @_ZL5g_394, align 2
  %conv348 = zext i16 %148 to i32
  %or349 = or i32 %conv347, %conv348
  %149 = load i16* %l_679, align 2
  %conv350 = zext i16 %149 to i32
  %xor351 = xor i32 %or349, %conv350
  %150 = load i16* %l_688, align 2
  %conv352 = sext i16 %150 to i32
  %xor353 = xor i32 %xor351, %conv352
  %cmp354 = icmp ne i32 %xor353, 4
  %conv355 = zext i1 %cmp354 to i32
  %151 = load i32* @_ZL5g_622, align 4
  %xor356 = xor i32 %151, %conv355
  store i32 %xor356, i32* @_ZL5g_622, align 4
  %152 = load i32* @_ZL4g_36, align 4
  %and357 = and i32 %152, %xor356
  store i32 %and357, i32* @_ZL4g_36, align 4
  %tobool358 = icmp ne i32 %and357, 0
  %lnot359 = xor i1 %tobool358, true
  %conv360 = zext i1 %lnot359 to i16
  %call361 = call signext i16 @_ZL25safe_add_func_int16_t_s_sss(i16 signext %conv360, i16 signext 3318)
  %conv362 = sext i16 %call361 to i32
  store i32 %conv362, i32* @_ZL4g_55, align 4
  %153 = load i32* %l_660, align 4
  %154 = load i32* @_ZL4g_55, align 4
  %or363 = or i32 %154, %153
  store i32 %or363, i32* @_ZL4g_55, align 4
  br label %if.end996

if.else364:                                       ; preds = %lor.end279
  store i32 2, i32* %l_731, align 4
  store i32 1397668227, i32* %l_795, align 4
  store i32 -9, i32* %l_834, align 4
  store i16 0, i16* %l_872, align 2
  store i32 -1, i32* %l_874, align 4
  store i16 -1703, i16* %l_929, align 2
  store i32 -401688856, i32* %l_952, align 4
  %155 = load i32* @_ZL5g_489, align 4
  %156 = load i32* %l_731, align 4
  %157 = load i32* %l_731, align 4
  %conv365 = trunc i32 %157 to i16
  %call366 = call zeroext i16 @_ZL32safe_unary_minus_func_uint16_t_ut(i16 zeroext %conv365)
  %conv367 = zext i16 %call366 to i32
  %158 = load i32* @_ZL5g_622, align 4
  %arrayidx368 = getelementptr inbounds [5 x [5 x [6 x i32]]]* %l_4, i32 0, i64 0
  %arrayidx369 = getelementptr inbounds [5 x [6 x i32]]* %arrayidx368, i32 0, i64 0
  %arrayidx370 = getelementptr inbounds [6 x i32]* %arrayidx369, i32 0, i64 4
  store i32 %158, i32* %arrayidx370, align 4
  %cmp371 = icmp sgt i32 %conv367, %158
  %conv372 = zext i1 %cmp371 to i16
  %159 = load i32* %l_703, align 4
  %conv373 = trunc i32 %159 to i16
  %call374 = call zeroext i16 @_ZL26safe_add_func_uint16_t_u_utt(i16 zeroext %conv372, i16 zeroext %conv373)
  %conv375 = zext i16 %call374 to i32
  %call376 = call zeroext i16 @_ZL29safe_lshift_func_uint16_t_u_sti(i16 zeroext -29119, i32 %conv375)
  %conv377 = zext i16 %call376 to i32
  %or378 = or i32 %156, %conv377
  %cmp379 = icmp sgt i32 %155, %or378
  %conv380 = zext i1 %cmp379 to i32
  %160 = load i16* @_ZL4g_56, align 2
  %conv381 = sext i16 %160 to i32
  %cmp382 = icmp sle i32 %conv381, 3
  br i1 %cmp382, label %land.rhs383, label %land.end384

land.rhs383:                                      ; preds = %if.else364
  br label %land.end384

land.end384:                                      ; preds = %land.rhs383, %if.else364
  %161 = phi i1 [ false, %if.else364 ], [ true, %land.rhs383 ]
  %conv385 = zext i1 %161 to i16
  %162 = load i32* @_ZL4g_33, align 4
  %call386 = call signext i16 @_ZL28safe_rshift_func_int16_t_s_usj(i16 signext %conv385, i32 %162)
  %conv387 = sext i16 %call386 to i32
  %163 = load i32* %l_731, align 4
  %cmp388 = icmp sge i32 %conv387, %163
  %conv389 = zext i1 %cmp388 to i32
  %cmp390 = icmp eq i32 %conv389, 0
  %conv391 = zext i1 %cmp390 to i32
  %164 = load i32* %l_660, align 4
  %cmp392 = icmp sgt i32 %conv391, %164
  %conv393 = zext i1 %cmp392 to i16
  %165 = load i32* %l_676, align 4
  %conv394 = trunc i32 %165 to i16
  %call395 = call zeroext i16 @_ZL26safe_mod_func_uint16_t_u_utt(i16 zeroext %conv393, i16 zeroext %conv394)
  %166 = load i32* %l_660, align 4
  %conv396 = trunc i32 %166 to i16
  %call397 = call zeroext i16 @_ZL26safe_sub_func_uint16_t_u_utt(i16 zeroext %call395, i16 zeroext %conv396)
  %tobool398 = icmp ne i16 %call397, 0
  br i1 %tobool398, label %land.rhs399, label %land.end401

land.rhs399:                                      ; preds = %land.end384
  %167 = load i32* %l_731, align 4
  %tobool400 = icmp ne i32 %167, 0
  br label %land.end401

land.end401:                                      ; preds = %land.rhs399, %land.end384
  %168 = phi i1 [ false, %land.end384 ], [ %tobool400, %land.rhs399 ]
  %conv402 = zext i1 %168 to i32
  %169 = load i16* %l_679, align 2
  %conv403 = zext i16 %169 to i32
  %cmp404 = icmp eq i32 %conv402, %conv403
  %conv405 = zext i1 %cmp404 to i32
  %170 = load i32* @_ZL4g_33, align 4
  %call406 = call i32 @_ZL26safe_sub_func_uint32_t_u_ujj(i32 %conv405, i32 %170)
  %171 = load i16* @_ZL4g_60, align 2
  %conv407 = zext i16 %171 to i32
  %cmp408 = icmp ule i32 %call406, %conv407
  %conv409 = zext i1 %cmp408 to i32
  %xor410 = xor i32 4, %conv409
  %172 = load i32* @_ZL4g_55, align 4
  %and411 = and i32 %xor410, %172
  %and412 = and i32 %conv380, %and411
  %tobool413 = icmp ne i32 %and412, 0
  br i1 %tobool413, label %land.rhs414, label %land.end416

land.rhs414:                                      ; preds = %land.end401
  %173 = load i32* %l_659, align 4
  %tobool415 = icmp ne i32 %173, 0
  br label %land.end416

land.end416:                                      ; preds = %land.rhs414, %land.end401
  %174 = phi i1 [ false, %land.end401 ], [ %tobool415, %land.rhs414 ]
  %conv417 = zext i1 %174 to i32
  %175 = load i32* @_ZL5g_622, align 4
  %cmp418 = icmp ule i32 %conv417, %175
  %conv419 = zext i1 %cmp418 to i32
  %176 = load i32* %l_660, align 4
  %or420 = or i32 %conv419, %176
  %tobool421 = icmp ne i32 %or420, 0
  br i1 %tobool421, label %if.then423, label %lor.lhs.false

lor.lhs.false:                                    ; preds = %land.end416
  %177 = load i32* @_ZL5g_396, align 4
  %tobool422 = icmp ne i32 %177, 0
  br i1 %tobool422, label %if.then423, label %if.else721

if.then423:                                       ; preds = %lor.lhs.false, %land.end416
  store i32 6, i32* %l_763, align 4
  store i32 -941862878, i32* %l_862, align 4
  %178 = bitcast [4 x [5 x [9 x i32]]]* %l_875 to i8*
  call void @llvm.memcpy.p0i8.p0i8.i64(i8* %178, i8* bitcast ([4 x [5 x [9 x i32]]]* @_ZZL6func_1vE5l_875 to i8*), i64 720, i32 16, i1 false)
  store i32 0, i32* %i424, align 4
  br label %for.cond427

for.cond427:                                      ; preds = %for.inc432, %if.then423
  %179 = load i32* %i424, align 4
  %cmp428 = icmp slt i32 %179, 6
  br i1 %cmp428, label %for.body429, label %for.end434

for.body429:                                      ; preds = %for.cond427
  %180 = load i32* %i424, align 4
  %idxprom430 = sext i32 %180 to i64
  %arrayidx431 = getelementptr inbounds [6 x i32]* %l_759, i32 0, i64 %idxprom430
  store i32 424479008, i32* %arrayidx431, align 4
  br label %for.inc432

for.inc432:                                       ; preds = %for.body429
  %181 = load i32* %i424, align 4
  %inc433 = add nsw i32 %181, 1
  store i32 %inc433, i32* %i424, align 4
  br label %for.cond427

for.end434:                                       ; preds = %for.cond427
  %182 = load i16* %l_662, align 2
  %conv435 = sext i16 %182 to i32
  %or436 = or i32 %conv435, 5543
  %conv437 = trunc i32 %or436 to i16
  %183 = load i32* %l_703, align 4
  %conv438 = trunc i32 %183 to i16
  %call439 = call zeroext i16 @_ZL26safe_div_func_uint16_t_u_utt(i16 zeroext %conv437, i16 zeroext %conv438)
  %conv440 = zext i16 %call439 to i32
  %184 = load i16* %l_662, align 2
  %conv441 = sext i16 %184 to i32
  %185 = load i16* @_ZL4g_60, align 2
  %conv442 = zext i16 %185 to i32
  %call443 = call i32 @_ZL25safe_sub_func_int32_t_s_sii(i32 %conv441, i32 %conv442)
  %186 = load i32* %l_730, align 4
  %cmp444 = icmp slt i32 %call443, %186
  %conv445 = zext i1 %cmp444 to i32
  %neg = xor i32 %conv445, -1
  %call446 = call i32 @_ZL26safe_mod_func_uint32_t_u_ujj(i32 %conv440, i32 %neg)
  %arrayidx447 = getelementptr inbounds [6 x i32]* %l_759, i32 0, i64 4
  %187 = load i32* %arrayidx447, align 4
  %188 = load i32* @_ZL4g_33, align 4
  %189 = load volatile i16* @_ZL5g_277, align 2
  %conv448 = zext i16 %189 to i32
  %190 = load i32* @_ZL5g_396, align 4
  %call449 = call i32 @_ZL25safe_div_func_int32_t_s_sii(i32 %conv448, i32 %190)
  %191 = load i32* %l_731, align 4
  %cmp450 = icmp sle i32 %call449, %191
  %conv451 = zext i1 %cmp450 to i32
  %or452 = or i32 %188, %conv451
  %192 = load i32* @_ZL5g_166, align 4
  %or453 = or i32 %or452, %192
  %and454 = and i32 %187, %or453
  %193 = load i32* @_ZL4g_55, align 4
  %cmp455 = icmp ult i32 %and454, %193
  %conv456 = zext i1 %cmp455 to i16
  %call457 = call zeroext i16 @_ZL32safe_unary_minus_func_uint16_t_ut(i16 zeroext %conv456)
  %tobool458 = icmp ne i16 %call457, 0
  br i1 %tobool458, label %land.rhs459, label %land.end461

land.rhs459:                                      ; preds = %for.end434
  %194 = load i32* @_ZL5g_168, align 4
  %tobool460 = icmp ne i32 %194, 0
  br label %land.end461

land.end461:                                      ; preds = %land.rhs459, %for.end434
  %195 = phi i1 [ false, %for.end434 ], [ %tobool460, %land.rhs459 ]
  %conv462 = zext i1 %195 to i32
  %call463 = call i32 @_ZL25safe_sub_func_int32_t_s_sii(i32 %call446, i32 %conv462)
  %tobool464 = icmp ne i32 %call463, 0
  br i1 %tobool464, label %if.then467, label %lor.lhs.false465

lor.lhs.false465:                                 ; preds = %land.end461
  %196 = load i32* @_ZL4g_48, align 4
  %tobool466 = icmp ne i32 %196, 0
  br i1 %tobool466, label %if.then467, label %if.else469

if.then467:                                       ; preds = %lor.lhs.false465, %land.end461
  %197 = load i32* @_ZL3g_2, align 4
  %and468 = and i32 %197, 0
  store i32 %and468, i32* @_ZL3g_2, align 4
  br label %if.end

if.else469:                                       ; preds = %lor.lhs.false465
  store i32 1, i32* %l_762, align 4
  %198 = load i32* %l_762, align 4
  store i32 %198, i32* %retval
  br label %return

if.end:                                           ; preds = %if.then467
  %199 = load i32* %l_763, align 4
  %tobool470 = icmp ne i32 %199, 0
  br i1 %tobool470, label %if.then471, label %if.else529

if.then471:                                       ; preds = %if.end
  %200 = load i32* @_ZL5g_168, align 4
  %conv472 = trunc i32 %200 to i16
  %call473 = call signext i16 @_ZL31safe_unary_minus_func_int16_t_ss(i16 signext -9)
  %conv474 = sext i16 %call473 to i32
  %201 = load volatile i32* @_ZL5g_778, align 4
  %conv475 = trunc i32 %201 to i16
  %call476 = call zeroext i16 @_ZL32safe_unary_minus_func_uint16_t_ut(i16 zeroext %conv475)
  %conv477 = zext i16 %call476 to i32
  %and478 = and i32 %conv474, %conv477
  %conv479 = trunc i32 %and478 to i16
  %call480 = call signext i16 @_ZL25safe_mod_func_int16_t_s_sss(i16 signext %conv472, i16 signext %conv479)
  %call481 = call signext i16 @_ZL28safe_rshift_func_int16_t_s_usj(i16 signext -4, i32 14)
  %call482 = call zeroext i16 @_ZL29safe_rshift_func_uint16_t_u_utj(i16 zeroext %call481, i32 15)
  %call483 = call zeroext i16 @_ZL26safe_sub_func_uint16_t_u_utt(i16 zeroext %call480, i16 zeroext %call482)
  %202 = load i32* @_ZL5g_615, align 4
  %203 = load i16* @_ZL4g_56, align 2
  %conv484 = sext i16 %203 to i32
  %204 = load i16* %l_688, align 2
  %conv485 = sext i16 %204 to i32
  %cmp486 = icmp slt i32 %conv484, %conv485
  %conv487 = zext i1 %cmp486 to i32
  %205 = load i32* %l_703, align 4
  %conv488 = trunc i32 %205 to i16
  %206 = load i32* %l_660, align 4
  %conv489 = trunc i32 %206 to i16
  %call490 = call zeroext i16 @_ZL26safe_add_func_uint16_t_u_utt(i16 zeroext %conv488, i16 zeroext %conv489)
  %conv491 = zext i16 %call490 to i32
  %207 = load i16* @_ZL4g_60, align 2
  %conv492 = zext i16 %207 to i32
  %call493 = call i32 @_ZL26safe_sub_func_uint32_t_u_ujj(i32 %conv491, i32 %conv492)
  %208 = load i16* @_ZL4g_56, align 2
  %conv494 = sext i16 %208 to i32
  %cmp495 = icmp ne i32 %call493, %conv494
  br i1 %cmp495, label %lor.end498, label %lor.rhs496

lor.rhs496:                                       ; preds = %if.then471
  %209 = load i32* %l_795, align 4
  %tobool497 = icmp ne i32 %209, 0
  br label %lor.end498

lor.end498:                                       ; preds = %lor.rhs496, %if.then471
  %210 = phi i1 [ true, %if.then471 ], [ %tobool497, %lor.rhs496 ]
  %conv499 = zext i1 %210 to i32
  %211 = load i32* %l_660, align 4
  %xor500 = xor i32 %conv499, %211
  %call501 = call i32 @_ZL25safe_sub_func_int32_t_s_sii(i32 %conv487, i32 %xor500)
  store i32 %call501, i32* %l_703, align 4
  %cmp502 = icmp sgt i32 %202, %call501
  br i1 %cmp502, label %lor.end505, label %lor.rhs503

lor.rhs503:                                       ; preds = %lor.end498
  %212 = load i32* @_ZL4g_55, align 4
  %tobool504 = icmp ne i32 %212, 0
  br label %lor.end505

lor.end505:                                       ; preds = %lor.rhs503, %lor.end498
  %213 = phi i1 [ true, %lor.end498 ], [ %tobool504, %lor.rhs503 ]
  %conv506 = zext i1 %213 to i16
  %214 = load i32* %l_730, align 4
  %conv507 = trunc i32 %214 to i16
  %call508 = call zeroext i16 @_ZL26safe_mul_func_uint16_t_u_utt(i16 zeroext %conv506, i16 zeroext %conv507)
  %conv509 = zext i16 %call508 to i32
  %215 = load i32* @_ZL4g_48, align 4
  %call510 = call i32 @_ZL25safe_div_func_int32_t_s_sii(i32 %conv509, i32 %215)
  %or511 = or i32 40437, %call510
  %conv512 = trunc i32 %or511 to i16
  %216 = load i32* @_ZL5g_166, align 4
  %conv513 = trunc i32 %216 to i16
  %call514 = call zeroext i16 @_ZL26safe_mod_func_uint16_t_u_utt(i16 zeroext %conv512, i16 zeroext %conv513)
  %call515 = call zeroext i16 @_ZL26safe_mul_func_uint16_t_u_utt(i16 zeroext %call483, i16 zeroext %call514)
  %217 = load i32* @_ZL4g_33, align 4
  %conv516 = trunc i32 %217 to i16
  %call517 = call signext i16 @_ZL25safe_mod_func_int16_t_s_sss(i16 signext %call515, i16 signext %conv516)
  %conv518 = sext i16 %call517 to i32
  %218 = load i32* @_ZL4g_33, align 4
  %call519 = call i32 @_ZL26safe_mod_func_uint32_t_u_ujj(i32 %conv518, i32 %218)
  %tobool520 = icmp ne i32 %call519, 0
  br i1 %tobool520, label %land.rhs521, label %land.end523

land.rhs521:                                      ; preds = %lor.end505
  %219 = load i32* %l_703, align 4
  %tobool522 = icmp ne i32 %219, 0
  br label %land.end523

land.end523:                                      ; preds = %land.rhs521, %lor.end505
  %220 = phi i1 [ false, %lor.end505 ], [ %tobool522, %land.rhs521 ]
  %conv524 = zext i1 %220 to i32
  %221 = load i32* @_ZL5g_796, align 4
  %call525 = call i32 @_ZL26safe_add_func_uint32_t_u_ujj(i32 %conv524, i32 %221)
  %222 = load i16* @_ZL5g_394, align 2
  %conv526 = zext i16 %222 to i32
  %or527 = or i32 %call525, %conv526
  %223 = load i32* getelementptr inbounds ([10 x [5 x i32]]* @_ZL4g_49, i32 0, i64 2, i64 2), align 4
  %xor528 = xor i32 %223, %or527
  store i32 %xor528, i32* getelementptr inbounds ([10 x [5 x i32]]* @_ZL4g_49, i32 0, i64 2, i64 2), align 4
  br label %if.end603

if.else529:                                       ; preds = %if.end
  %224 = load i32* @_ZL5g_166, align 4
  %conv530 = trunc i32 %224 to i16
  %225 = load i32* %l_763, align 4
  %226 = load i32* %l_730, align 4
  %or531 = or i32 %226, 2371
  store i32 %or531, i32* %l_730, align 4
  %227 = load i16* @_ZL4g_46, align 2
  %conv532 = sext i16 %227 to i32
  %or533 = or i32 %or531, %conv532
  %228 = load i32* %l_820, align 4
  %conv534 = trunc i32 %228 to i16
  %call535 = call signext i16 @_ZL28safe_rshift_func_int16_t_s_ssi(i16 signext %conv534, i32 5)
  %tobool536 = icmp ne i16 %call535, 0
  br i1 %tobool536, label %land.rhs537, label %land.end557

land.rhs537:                                      ; preds = %if.else529
  %229 = load i32* @_ZL4g_36, align 4
  %230 = load i16* %l_688, align 2
  %conv538 = sext i16 %230 to i32
  %cmp539 = icmp eq i32 %229, %conv538
  %conv540 = zext i1 %cmp539 to i32
  %neg541 = xor i32 %conv540, -1
  %231 = load i32* @_ZL5g_398, align 4
  %or542 = or i32 %neg541, %231
  %232 = load i16* @_ZL4g_60, align 2
  %conv543 = zext i16 %232 to i32
  %call544 = call i32 @_ZL25safe_add_func_int32_t_s_sii(i32 %or542, i32 %conv543)
  %cmp545 = icmp uge i32 65535, %call544
  %conv546 = zext i1 %cmp545 to i32
  %cmp547 = icmp sle i32 %conv546, 51361
  %conv548 = zext i1 %cmp547 to i32
  %xor549 = xor i32 %conv548, 65077
  %233 = load i16* %l_688, align 2
  %conv550 = sext i16 %233 to i32
  %cmp551 = icmp ne i32 %xor549, %conv550
  %conv552 = zext i1 %cmp551 to i32
  %cmp553 = icmp slt i32 %conv552, -1
  %conv554 = zext i1 %cmp553 to i32
  %call555 = call i32 @_ZL25safe_div_func_int32_t_s_sii(i32 %conv554, i32 -9)
  %tobool556 = icmp ne i32 %call555, 0
  br label %land.end557

land.end557:                                      ; preds = %land.rhs537, %if.else529
  %234 = phi i1 [ false, %if.else529 ], [ %tobool556, %land.rhs537 ]
  %conv558 = zext i1 %234 to i32
  %neg559 = xor i32 %conv558, -1
  %call560 = call i32 @_ZL25safe_mod_func_int32_t_s_sii(i32 %neg559, i32 1)
  %tobool561 = icmp ne i32 %call560, 0
  br i1 %tobool561, label %land.rhs564, label %lor.lhs.false562

lor.lhs.false562:                                 ; preds = %land.end557
  %235 = load i32* %l_820, align 4
  %tobool563 = icmp ne i32 %235, 0
  br i1 %tobool563, label %land.rhs564, label %land.end566

land.rhs564:                                      ; preds = %lor.lhs.false562, %land.end557
  %236 = load i32* @_ZL4g_55, align 4
  %tobool565 = icmp ne i32 %236, 0
  br label %land.end566

land.end566:                                      ; preds = %land.rhs564, %lor.lhs.false562
  %237 = phi i1 [ false, %lor.lhs.false562 ], [ %tobool565, %land.rhs564 ]
  %conv567 = zext i1 %237 to i32
  %238 = load i16* %l_688, align 2
  %conv568 = sext i16 %238 to i32
  %cmp569 = icmp slt i32 %conv567, %conv568
  %conv570 = zext i1 %cmp569 to i16
  %239 = load i32* %l_763, align 4
  %conv571 = trunc i32 %239 to i16
  %call572 = call signext i16 @_ZL25safe_mul_func_int16_t_s_sss(i16 signext %conv570, i16 signext %conv571)
  %conv573 = sext i16 %call572 to i32
  %cmp574 = icmp eq i32 %or533, %conv573
  %conv575 = zext i1 %cmp574 to i32
  %240 = load volatile i32* @_ZL5g_778, align 4
  %cmp576 = icmp sgt i32 %conv575, %240
  %conv577 = zext i1 %cmp576 to i32
  %call578 = call i32 @_ZL25safe_sub_func_int32_t_s_sii(i32 %225, i32 %conv577)
  %conv579 = trunc i32 %call578 to i16
  %241 = load i16* @_ZL4g_56, align 2
  %conv580 = sext i16 %241 to i32
  %call581 = call signext i16 @_ZL28safe_lshift_func_int16_t_s_ssi(i16 signext %conv579, i32 %conv580)
  %tobool582 = icmp ne i16 %call581, 0
  br i1 %tobool582, label %land.rhs583, label %land.end585

land.rhs583:                                      ; preds = %land.end566
  %242 = load i32* @_ZL5g_622, align 4
  %tobool584 = icmp ne i32 %242, 0
  br label %land.end585

land.end585:                                      ; preds = %land.rhs583, %land.end566
  %243 = phi i1 [ false, %land.end566 ], [ %tobool584, %land.rhs583 ]
  %conv586 = zext i1 %243 to i32
  %call587 = call i32 @_ZL26safe_sub_func_uint32_t_u_ujj(i32 0, i32 %conv586)
  %and588 = and i32 %call587, 5
  %244 = load i32* @_ZL5g_622, align 4
  %cmp589 = icmp eq i32 %and588, %244
  %conv590 = zext i1 %cmp589 to i16
  %245 = load i32* %l_826, align 4
  %conv591 = trunc i32 %245 to i16
  %call592 = call zeroext i16 @_ZL26safe_mul_func_uint16_t_u_utt(i16 zeroext %conv590, i16 zeroext %conv591)
  %246 = load i32* getelementptr inbounds ([10 x [5 x i32]]* @_ZL4g_49, i32 0, i64 6, i64 0), align 4
  %conv593 = trunc i32 %246 to i16
  %call594 = call signext i16 @_ZL25safe_div_func_int16_t_s_sss(i16 signext %call592, i16 signext %conv593)
  %call595 = call zeroext i16 @_ZL29safe_rshift_func_uint16_t_u_utj(i16 zeroext %call594, i32 6)
  %247 = load i32* @_ZL5g_615, align 4
  %conv596 = trunc i32 %247 to i16
  %call597 = call signext i16 @_ZL25safe_sub_func_int16_t_s_sss(i16 signext %call595, i16 signext %conv596)
  %call598 = call zeroext i16 @_ZL26safe_mod_func_uint16_t_u_utt(i16 zeroext %conv530, i16 zeroext %call597)
  %conv599 = zext i16 %call598 to i32
  %cmp600 = icmp slt i32 0, %conv599
  %conv601 = zext i1 %cmp600 to i32
  %248 = load i32* @_ZL4g_48, align 4
  %xor602 = xor i32 %248, %conv601
  store i32 %xor602, i32* @_ZL4g_48, align 4
  %249 = load i32* @_ZL5g_615, align 4
  store i32 %249, i32* %retval
  br label %return

if.end603:                                        ; preds = %land.end523
  store i32 4, i32* @_ZL3g_2, align 4
  br label %for.cond604

for.cond604:                                      ; preds = %for.inc618, %if.end603
  %250 = load i32* @_ZL3g_2, align 4
  %cmp605 = icmp sge i32 %250, 0
  br i1 %cmp605, label %for.body606, label %for.end619

for.body606:                                      ; preds = %for.cond604
  %251 = load i16* @_ZL4g_56, align 2
  %tobool609 = icmp ne i16 %251, 0
  br i1 %tobool609, label %if.then610, label %if.end611

if.then610:                                       ; preds = %for.body606
  br label %for.end619

if.end611:                                        ; preds = %for.body606
  %252 = load i32* @_ZL4g_33, align 4
  %253 = load i32* %l_676, align 4
  %add = add nsw i32 %253, 3
  %idxprom612 = sext i32 %add to i64
  %254 = load i32* %l_676, align 4
  %add613 = add nsw i32 %254, 4
  %idxprom614 = sext i32 %add613 to i64
  %arrayidx615 = getelementptr inbounds [10 x [5 x i32]]* @_ZL4g_49, i32 0, i64 %idxprom614
  %arrayidx616 = getelementptr inbounds [5 x i32]* %arrayidx615, i32 0, i64 %idxprom612
  store i32 %252, i32* %arrayidx616, align 4
  %255 = load i16* @_ZL4g_56, align 2
  %conv617 = sext i16 %255 to i32
  store i32 %conv617, i32* %retval
  br label %return

for.inc618:                                       ; No predecessors!
  %256 = load i32* @_ZL3g_2, align 4
  %sub = sub nsw i32 %256, 1
  store i32 %sub, i32* @_ZL3g_2, align 4
  br label %for.cond604

for.end619:                                       ; preds = %if.then610, %for.cond604
  %257 = load i16* @_ZL5g_394, align 2
  %inc620 = add i16 %257, 1
  store i16 %inc620, i16* @_ZL5g_394, align 2
  %conv621 = zext i16 %257 to i32
  %258 = load i32* @_ZL5g_166, align 4
  %conv622 = trunc i32 %258 to i16
  %259 = load i32* @_ZL5g_166, align 4
  %call623 = call signext i16 @_ZL28safe_rshift_func_int16_t_s_usj(i16 signext %conv622, i32 %259)
  %260 = load i32* getelementptr inbounds ([10 x [5 x i32]]* @_ZL4g_49, i32 0, i64 9, i64 4), align 4
  %261 = load i16* %l_662, align 2
  %conv624 = sext i16 %261 to i32
  %262 = load i32* %l_730, align 4
  %and625 = and i32 %conv624, %262
  %263 = load volatile i32* getelementptr inbounds ([5 x [1 x [2 x i32]]]* @_ZL5g_577, i32 0, i64 3, i64 0, i64 1), align 4
  %264 = load i16* @_ZL4g_46, align 2
  %conv626 = sext i16 %264 to i32
  %265 = load i32* @_ZL5g_622, align 4
  %call627 = call signext i16 @_ZL28safe_lshift_func_int16_t_s_ssi(i16 signext 0, i32 %265)
  %conv628 = sext i16 %call627 to i32
  %cmp629 = icmp sge i32 %conv626, %conv628
  %conv630 = zext i1 %cmp629 to i32
  store i32 %conv630, i32* %l_703, align 4
  %call631 = call i32 @_ZL26safe_mod_func_uint32_t_u_ujj(i32 %conv630, i32 -973382652)
  %cmp632 = icmp ne i32 %call631, 37228
  %lnot633 = xor i1 %cmp632, true
  %conv634 = zext i1 %lnot633 to i32
  %cmp635 = icmp sgt i32 %263, %conv634
  %conv636 = zext i1 %cmp635 to i32
  %266 = load i32* %l_730, align 4
  %cmp637 = icmp sle i32 %conv636, %266
  %conv638 = zext i1 %cmp637 to i32
  %267 = load i16* @_ZL4g_56, align 2
  %conv639 = sext i16 %267 to i32
  %call640 = call i32 @_ZL25safe_mod_func_int32_t_s_sii(i32 %conv638, i32 %conv639)
  %conv641 = trunc i32 %call640 to i16
  %arrayidx642 = getelementptr inbounds [4 x i16]* %l_858, i32 0, i64 3
  store i16 %conv641, i16* %arrayidx642, align 2
  %conv643 = sext i16 %conv641 to i32
  %call644 = call i32 @_ZL25safe_add_func_int32_t_s_sii(i32 %and625, i32 %conv643)
  %call645 = call i32 @_ZL25safe_mod_func_int32_t_s_sii(i32 %260, i32 %call644)
  %268 = load i32* %l_834, align 4
  %call646 = call i32 @_ZL26safe_div_func_uint32_t_u_ujj(i32 %call645, i32 %268)
  %tobool647 = icmp ne i32 %call646, 0
  br i1 %tobool647, label %lor.end650, label %lor.rhs648

lor.rhs648:                                       ; preds = %for.end619
  %269 = load i32* %l_826, align 4
  %tobool649 = icmp ne i32 %269, 0
  br label %lor.end650

lor.end650:                                       ; preds = %lor.rhs648, %for.end619
  %270 = phi i1 [ true, %for.end619 ], [ %tobool649, %lor.rhs648 ]
  %conv651 = zext i1 %270 to i32
  %cmp652 = icmp ult i32 %conv651, 1
  %conv653 = zext i1 %cmp652 to i32
  %271 = load i32* @_ZL5g_859, align 4
  %or654 = or i32 %conv653, %271
  %272 = load i32* %l_763, align 4
  %cmp655 = icmp ne i32 %or654, %272
  %conv656 = zext i1 %cmp655 to i16
  store i16 %conv656, i16* @_ZL4g_46, align 2
  %conv657 = sext i16 %conv656 to i32
  %273 = load i32* getelementptr inbounds ([1 x [6 x i32]]* @_ZL5g_860, i32 0, i64 0, i64 4), align 4
  %and658 = and i32 %273, %conv657
  store i32 %and658, i32* getelementptr inbounds ([1 x [6 x i32]]* @_ZL5g_860, i32 0, i64 0, i64 4), align 4
  %xor659 = xor i32 %and658, 20806
  %conv660 = trunc i32 %xor659 to i16
  %274 = load i16* @_ZL4g_60, align 2
  %conv661 = zext i16 %274 to i32
  %call662 = call zeroext i16 @_ZL29safe_rshift_func_uint16_t_u_sti(i16 zeroext %conv660, i32 %conv661)
  %call663 = call zeroext i16 @_ZL26safe_mul_func_uint16_t_u_utt(i16 zeroext %call623, i16 zeroext %call662)
  %conv664 = zext i16 %call663 to i32
  %cmp665 = icmp uge i32 %conv664, -779406906
  %conv666 = zext i1 %cmp665 to i32
  %cmp667 = icmp ugt i32 %conv666, 5
  %conv668 = zext i1 %cmp667 to i16
  %call669 = call zeroext i16 @_ZL26safe_div_func_uint16_t_u_utt(i16 zeroext %conv668, i16 zeroext -9)
  %conv670 = zext i16 %call669 to i32
  %275 = load i32* @_ZL4g_48, align 4
  %cmp671 = icmp eq i32 %conv670, %275
  %conv672 = zext i1 %cmp671 to i32
  %cmp673 = icmp slt i32 %conv621, %conv672
  %conv674 = zext i1 %cmp673 to i32
  %276 = load i32* @_ZL5g_168, align 4
  %cmp675 = icmp ult i32 %conv674, %276
  %conv676 = zext i1 %cmp675 to i32
  %call677 = call i32 @_ZL25safe_sub_func_int32_t_s_sii(i32 %conv676, i32 9)
  store i32 %call677, i32* %l_861, align 4
  %277 = load i32* %l_862, align 4
  %xor678 = xor i32 %call677, %277
  %conv679 = trunc i32 %xor678 to i16
  store i16 %conv679, i16* @_ZL4g_60, align 2
  %conv680 = zext i16 %conv679 to i32
  %278 = load i32* @_ZL5g_615, align 4
  %cmp681 = icmp sle i32 %conv680, %278
  %conv682 = zext i1 %cmp681 to i32
  %call683 = call i32 @_ZL26safe_add_func_uint32_t_u_ujj(i32 %conv682, i32 -1)
  %tobool684 = icmp ne i32 %call683, 0
  %conv685 = zext i1 %tobool684 to i16
  %call686 = call signext i16 @_ZL25safe_mod_func_int16_t_s_sss(i16 signext %conv685, i16 signext 11604)
  %conv687 = sext i16 %call686 to i32
  %tobool688 = icmp ne i32 %conv687, 0
  br i1 %tobool688, label %if.then689, label %if.else690

if.then689:                                       ; preds = %lor.end650
  %279 = load i32* getelementptr inbounds ([1 x [6 x i32]]* @_ZL5g_860, i32 0, i64 0, i64 3), align 4
  store i32 %279, i32* %retval
  br label %return

if.else690:                                       ; preds = %lor.end650
  %280 = load i32* @_ZL5g_168, align 4
  %tobool691 = icmp ne i32 %280, 0
  br i1 %tobool691, label %lor.end707, label %lor.rhs692

lor.rhs692:                                       ; preds = %if.else690
  %281 = load volatile i32* getelementptr inbounds ([5 x [1 x [2 x i32]]]* @_ZL5g_577, i32 0, i64 0, i64 0, i64 1), align 4
  %conv693 = trunc i32 %281 to i16
  %282 = load i32* @_ZL5g_622, align 4
  %conv694 = trunc i32 %282 to i16
  %arrayidx695 = getelementptr inbounds [9 x [3 x i32]]* %l_871, i32 0, i64 6
  %arrayidx696 = getelementptr inbounds [3 x i32]* %arrayidx695, i32 0, i64 2
  %283 = load i32* %arrayidx696, align 4
  %284 = load i32* @_ZL5g_166, align 4
  store i32 %284, i32* @_ZL4g_48, align 4
  %call697 = call i32 @_ZL25safe_mod_func_int32_t_s_sii(i32 %283, i32 %284)
  %call698 = call zeroext i16 @_ZL29safe_rshift_func_uint16_t_u_utj(i16 zeroext %conv694, i32 %call697)
  %call699 = call zeroext i16 @_ZL29safe_rshift_func_uint16_t_u_utj(i16 zeroext %call698, i32 13)
  %conv700 = zext i16 %call699 to i32
  %call701 = call zeroext i16 @_ZL29safe_rshift_func_uint16_t_u_utj(i16 zeroext %conv693, i32 %conv700)
  %conv702 = zext i16 %call701 to i32
  %285 = load i16* %l_872, align 2
  %conv703 = sext i16 %285 to i32
  %xor704 = xor i32 %conv703, %conv702
  %conv705 = trunc i32 %xor704 to i16
  store i16 %conv705, i16* %l_872, align 2
  %tobool706 = icmp ne i16 %conv705, 0
  br label %lor.end707

lor.end707:                                       ; preds = %lor.rhs692, %if.else690
  %286 = phi i1 [ true, %if.else690 ], [ %tobool706, %lor.rhs692 ]
  %conv708 = zext i1 %286 to i32
  %287 = load i32* @_ZL3g_2, align 4
  %or709 = or i32 %conv708, %287
  store i32 %or709, i32* @_ZL3g_2, align 4
  %288 = load i32* @_ZL5g_859, align 4
  %tobool710 = icmp ne i32 %288, 0
  br i1 %tobool710, label %if.then711, label %if.end712

if.then711:                                       ; preds = %lor.end707
  br label %lbl_873

if.end712:                                        ; preds = %lor.end707
  %arrayidx713 = getelementptr inbounds [4 x [5 x [9 x i32]]]* %l_875, i32 0, i64 3
  %arrayidx714 = getelementptr inbounds [5 x [9 x i32]]* %arrayidx713, i32 0, i64 0
  %arrayidx715 = getelementptr inbounds [9 x i32]* %arrayidx714, i32 0, i64 1
  %289 = load i32* %arrayidx715, align 4
  %inc716 = add i32 %289, 1
  store i32 %inc716, i32* %arrayidx715, align 4
  %290 = load i32* %l_703, align 4
  %tobool717 = icmp ne i32 %290, 0
  br i1 %tobool717, label %if.then718, label %if.end719

if.then718:                                       ; preds = %if.end712
  br label %for.end1654

if.end719:                                        ; preds = %if.end712
  br label %if.end720

if.end720:                                        ; preds = %if.end719
  br label %if.end723

if.else721:                                       ; preds = %lor.lhs.false
  %291 = load i16* %l_872, align 2
  %conv722 = sext i16 %291 to i32
  store i32 %conv722, i32* %retval
  br label %return

if.end723:                                        ; preds = %if.end720
  %292 = load i32* @_ZL5g_615, align 4
  %293 = load i32* @_ZL5g_166, align 4
  %conv724 = trunc i32 %293 to i16
  %294 = load volatile i16* @_ZL5g_277, align 2
  %arrayidx725 = getelementptr inbounds [9 x [3 x i32]]* %l_871, i32 0, i64 0
  %arrayidx726 = getelementptr inbounds [3 x i32]* %arrayidx725, i32 0, i64 2
  %295 = load i32* %arrayidx726, align 4
  %296 = load i32* %l_834, align 4
  %297 = load i16* @_ZL4g_56, align 2
  %conv727 = sext i16 %297 to i32
  %and728 = and i32 %conv727, %296
  %conv729 = trunc i32 %and728 to i16
  store i16 %conv729, i16* @_ZL4g_56, align 2
  %call730 = call signext i16 @_ZL28safe_lshift_func_int16_t_s_ssi(i16 signext %conv729, i32 6)
  %conv731 = sext i16 %call730 to i32
  %or732 = or i32 %295, %conv731
  %298 = load i32* %l_703, align 4
  %tobool733 = icmp ne i32 %298, 0
  %lnot734 = xor i1 %tobool733, true
  %conv735 = zext i1 %lnot734 to i32
  %299 = load i32* getelementptr inbounds ([1 x [6 x i32]]* @_ZL5g_860, i32 0, i64 0, i64 0), align 4
  %call736 = call i32 @_ZL25safe_sub_func_int32_t_s_sii(i32 %conv735, i32 %299)
  %300 = load i32* %l_730, align 4
  %cmp737 = icmp sle i32 %call736, %300
  %conv738 = zext i1 %cmp737 to i16
  %call739 = call signext i16 @_ZL31safe_unary_minus_func_int16_t_ss(i16 signext %conv738)
  %301 = load i32* %l_703, align 4
  %call740 = call signext i16 @_ZL28safe_rshift_func_int16_t_s_usj(i16 signext %call739, i32 %301)
  %conv741 = sext i16 %call740 to i32
  %cmp742 = icmp ule i32 %or732, %conv741
  %conv743 = zext i1 %cmp742 to i16
  %302 = load i16* @_ZL5g_394, align 2
  %call744 = call signext i16 @_ZL25safe_sub_func_int16_t_s_sss(i16 signext %conv743, i16 signext %302)
  %conv745 = sext i16 %call744 to i32
  %303 = load i32* %l_795, align 4
  %cmp746 = icmp ugt i32 %conv745, %303
  %conv747 = zext i1 %cmp746 to i16
  %call748 = call zeroext i16 @_ZL26safe_div_func_uint16_t_u_utt(i16 zeroext %conv747, i16 zeroext 15099)
  %call749 = call signext i16 @_ZL25safe_sub_func_int16_t_s_sss(i16 signext %294, i16 signext %call748)
  %conv750 = sext i16 %call749 to i32
  store i32 %conv750, i32* %l_861, align 4
  %call751 = call i32 @_ZL25safe_mod_func_int32_t_s_sii(i32 %conv750, i32 -1)
  %conv752 = trunc i32 %call751 to i16
  %call753 = call signext i16 @_ZL25safe_mod_func_int16_t_s_sss(i16 signext %conv752, i16 signext -28245)
  %call754 = call zeroext i16 @_ZL26safe_mul_func_uint16_t_u_utt(i16 zeroext -1, i16 zeroext %call753)
  %conv755 = zext i16 %call754 to i32
  %and756 = and i32 %conv755, 862367504
  %304 = load i32* @_ZL4g_36, align 4
  %cmp757 = icmp ule i32 %and756, %304
  br i1 %cmp757, label %lor.end760, label %lor.rhs758

lor.rhs758:                                       ; preds = %if.end723
  %305 = load i32* @_ZL5g_489, align 4
  %tobool759 = icmp ne i32 %305, 0
  br label %lor.end760

lor.end760:                                       ; preds = %lor.rhs758, %if.end723
  %306 = phi i1 [ true, %if.end723 ], [ %tobool759, %lor.rhs758 ]
  %conv761 = zext i1 %306 to i16
  %call762 = call signext i16 @_ZL25safe_mul_func_int16_t_s_sss(i16 signext %conv724, i16 signext %conv761)
  %conv763 = sext i16 %call762 to i32
  %arrayidx764 = getelementptr inbounds [3 x i16]* %l_904, i32 0, i64 1
  %307 = load i16* %arrayidx764, align 2
  %conv765 = zext i16 %307 to i32
  %call766 = call i32 @_ZL26safe_mod_func_uint32_t_u_ujj(i32 %conv763, i32 %conv765)
  %cmp767 = icmp eq i32 %call766, 1231290328
  %conv768 = zext i1 %cmp767 to i32
  %308 = load i32* @_ZL5g_796, align 4
  %cmp769 = icmp ult i32 %conv768, %308
  %conv770 = zext i1 %cmp769 to i16
  %call771 = call zeroext i16 @_ZL29safe_lshift_func_uint16_t_u_utj(i16 zeroext %conv770, i32 13)
  %conv772 = zext i16 %call771 to i32
  %arrayidx773 = getelementptr inbounds [9 x [3 x i32]]* %l_871, i32 0, i64 6
  %arrayidx774 = getelementptr inbounds [3 x i32]* %arrayidx773, i32 0, i64 2
  %309 = load i32* %arrayidx774, align 4
  %cmp775 = icmp eq i32 %conv772, %309
  %conv776 = zext i1 %cmp775 to i32
  %cmp777 = icmp eq i32 %292, %conv776
  %conv778 = zext i1 %cmp777 to i32
  store i32 %conv778, i32* @_ZL5g_859, align 4
  %310 = load i16* @_ZL4g_46, align 2
  %311 = load i32* %l_826, align 4
  %conv779 = trunc i32 %311 to i16
  %312 = load i32* getelementptr inbounds ([10 x [5 x i32]]* @_ZL4g_49, i32 0, i64 3, i64 2), align 4
  %313 = load i16* %l_872, align 2
  %call780 = call zeroext i16 @_ZL26safe_div_func_uint16_t_u_utt(i16 zeroext %313, i16 zeroext 24449)
  %conv781 = zext i16 %call780 to i32
  %cmp782 = icmp eq i32 %312, %conv781
  %conv783 = zext i1 %cmp782 to i32
  %call784 = call zeroext i16 @_ZL29safe_lshift_func_uint16_t_u_sti(i16 zeroext %conv779, i32 %conv783)
  %conv785 = zext i16 %call784 to i32
  %314 = load volatile i32* getelementptr inbounds ([5 x [1 x [2 x i32]]]* @_ZL5g_577, i32 0, i64 1, i64 0, i64 1), align 4
  %tobool786 = icmp ne i32 %314, 0
  %lnot787 = xor i1 %tobool786, true
  %conv788 = zext i1 %lnot787 to i32
  %call789 = call i32 @_ZL26safe_add_func_uint32_t_u_ujj(i32 %conv785, i32 %conv788)
  %315 = load i32* @_ZL5g_622, align 4
  %cmp790 = icmp ne i32 %call789, %315
  %conv791 = zext i1 %cmp790 to i16
  %316 = load i16* @_ZL4g_60, align 2
  %conv792 = zext i16 %316 to i32
  %317 = load i32* %l_795, align 4
  %arrayidx793 = getelementptr inbounds [3 x i16]* %l_904, i32 0, i64 1
  %318 = load i16* %arrayidx793, align 2
  %conv794 = zext i16 %318 to i32
  %cmp795 = icmp ne i32 %317, %conv794
  %conv796 = zext i1 %cmp795 to i32
  %arrayidx797 = getelementptr inbounds [9 x [3 x i32]]* %l_871, i32 0, i64 3
  %arrayidx798 = getelementptr inbounds [3 x i32]* %arrayidx797, i32 0, i64 1
  %319 = load i32* %arrayidx798, align 4
  %cmp799 = icmp eq i32 %conv796, %319
  %conv800 = zext i1 %cmp799 to i16
  %320 = load i32* @_ZL3g_2, align 4
  %call801 = call signext i16 @_ZL28safe_lshift_func_int16_t_s_usj(i16 signext %conv800, i32 %320)
  %conv802 = sext i16 %call801 to i32
  %cmp803 = icmp ne i32 %conv792, %conv802
  %conv804 = zext i1 %cmp803 to i16
  %call805 = call signext i16 @_ZL25safe_mul_func_int16_t_s_sss(i16 signext %conv791, i16 signext %conv804)
  %call806 = call zeroext i16 @_ZL26safe_mul_func_uint16_t_u_utt(i16 zeroext %310, i16 zeroext %call805)
  store i16 %call806, i16* @_ZL4g_56, align 2
  %conv807 = sext i16 %call806 to i32
  %321 = load i32* @_ZL5g_859, align 4
  %cmp808 = icmp sgt i32 %conv807, %321
  %conv809 = zext i1 %cmp808 to i32
  %call810 = call i32 @_ZL25safe_add_func_int32_t_s_sii(i32 %conv809, i32 187216037)
  %322 = load i32* @_ZL5g_489, align 4
  %cmp811 = icmp ne i32 %call810, %322
  %conv812 = zext i1 %cmp811 to i32
  %323 = load i32* @_ZL5g_489, align 4
  %call813 = call i32 @_ZL25safe_sub_func_int32_t_s_sii(i32 %conv812, i32 %323)
  %conv814 = trunc i32 %call813 to i16
  %324 = load i32* @_ZL4g_33, align 4
  %call815 = call signext i16 @_ZL28safe_lshift_func_int16_t_s_ssi(i16 signext %conv814, i32 %324)
  %tobool816 = icmp ne i16 %call815, 0
  br i1 %tobool816, label %if.then817, label %if.else824

if.then817:                                       ; preds = %lor.end760
  %arrayidx818 = getelementptr inbounds [5 x [5 x [6 x i32]]]* %l_4, i32 0, i64 4
  %arrayidx819 = getelementptr inbounds [5 x [6 x i32]]* %arrayidx818, i32 0, i64 2
  %arrayidx820 = getelementptr inbounds [6 x i32]* %arrayidx819, i32 0, i64 1
  %325 = load i32* %arrayidx820, align 4
  %tobool821 = icmp ne i32 %325, 0
  br i1 %tobool821, label %if.then822, label %if.end823

if.then822:                                       ; preds = %if.then817
  br label %for.end1654

if.end823:                                        ; preds = %if.then817
  br label %if.end995

if.else824:                                       ; preds = %lor.end760
  store i32 7, i32* %l_925, align 4
  store i32 -2, i32* %l_928, align 4
  store i32 0, i32* %i825, align 4
  br label %for.cond826

for.cond826:                                      ; preds = %for.inc831, %if.else824
  %326 = load i32* %i825, align 4
  %cmp827 = icmp slt i32 %326, 3
  br i1 %cmp827, label %for.body828, label %for.end833

for.body828:                                      ; preds = %for.cond826
  %327 = load i32* %i825, align 4
  %idxprom829 = sext i32 %327 to i64
  %arrayidx830 = getelementptr inbounds [3 x i32]* %l_935, i32 0, i64 %idxprom829
  store i32 1, i32* %arrayidx830, align 4
  br label %for.inc831

for.inc831:                                       ; preds = %for.body828
  %328 = load i32* %i825, align 4
  %inc832 = add nsw i32 %328, 1
  store i32 %inc832, i32* %i825, align 4
  br label %for.cond826

for.end833:                                       ; preds = %for.cond826
  store i16 1, i16* @_ZL4g_60, align 2
  br label %for.cond834

for.cond834:                                      ; preds = %for.inc912, %for.end833
  %329 = load i16* @_ZL4g_60, align 2
  %conv835 = zext i16 %329 to i32
  %cmp836 = icmp sle i32 %conv835, 4
  br i1 %cmp836, label %for.body837, label %for.end916

for.body837:                                      ; preds = %for.cond834
  %330 = bitcast [2 x [10 x [7 x i32]]]* %l_924 to i8*
  call void @llvm.memcpy.p0i8.p0i8.i64(i8* %330, i8* bitcast ([2 x [10 x [7 x i32]]]* @_ZZL6func_1vE5l_924 to i8*), i64 560, i32 16, i1 false)
  %331 = load i32* %l_925, align 4
  %dec841 = add i32 %331, -1
  store i32 %dec841, i32* %l_925, align 4
  %332 = load i32* @_ZL5g_930, align 4
  %inc842 = add i32 %332, 1
  store i32 %inc842, i32* @_ZL5g_930, align 4
  %333 = load i32* %l_826, align 4
  %arrayidx843 = getelementptr inbounds [9 x [3 x i32]]* %l_871, i32 0, i64 6
  %arrayidx844 = getelementptr inbounds [3 x i32]* %arrayidx843, i32 0, i64 2
  %334 = load i32* %arrayidx844, align 4
  %cmp845 = icmp uge i32 %334, -9
  %conv846 = zext i1 %cmp845 to i32
  %or847 = or i32 %333, %conv846
  %tobool848 = icmp ne i32 %or847, 0
  br i1 %tobool848, label %lor.end901, label %lor.rhs849

lor.rhs849:                                       ; preds = %for.body837
  %arrayidx850 = getelementptr inbounds [3 x i32]* %l_935, i32 0, i64 2
  %335 = load i32* %arrayidx850, align 4
  %conv851 = trunc i32 %335 to i16
  %336 = load i16* %l_662, align 2
  %conv852 = sext i16 %336 to i32
  %337 = load i32* %l_928, align 4
  store i32 %337, i32* @_ZL5g_622, align 4
  %338 = load i16* %l_679, align 2
  %arrayidx853 = getelementptr inbounds [4 x i16]* %l_858, i32 0, i64 3
  %339 = load i16* %arrayidx853, align 2
  %conv854 = sext i16 %339 to i32
  %340 = load volatile i16* @_ZL5g_277, align 2
  %conv855 = zext i16 %340 to i32
  %cmp856 = icmp sgt i32 %conv854, %conv855
  %conv857 = zext i1 %cmp856 to i32
  %341 = load i32* @_ZL3g_2, align 4
  %cmp858 = icmp sle i32 %conv857, %341
  br i1 %cmp858, label %land.rhs859, label %land.end861

land.rhs859:                                      ; preds = %lor.rhs849
  %342 = load i32* %l_952, align 4
  %tobool860 = icmp ne i32 %342, 0
  br label %land.end861

land.end861:                                      ; preds = %land.rhs859, %lor.rhs849
  %343 = phi i1 [ false, %lor.rhs849 ], [ %tobool860, %land.rhs859 ]
  %conv862 = zext i1 %343 to i32
  %344 = load i16* @_ZL4g_46, align 2
  %conv863 = sext i16 %344 to i32
  %cmp864 = icmp slt i32 %conv862, %conv863
  %conv865 = zext i1 %cmp864 to i16
  %call866 = call signext i16 @_ZL25safe_add_func_int16_t_s_sss(i16 signext %338, i16 signext %conv865)
  %345 = load i32* @_ZL4g_36, align 4
  %conv867 = trunc i32 %345 to i16
  %call868 = call signext i16 @_ZL25safe_div_func_int16_t_s_sss(i16 signext %call866, i16 signext %conv867)
  %conv869 = sext i16 %call868 to i32
  %call870 = call i32 @_ZL26safe_div_func_uint32_t_u_ujj(i32 %conv869, i32 5)
  %cmp871 = icmp ule i32 %call870, 1
  %conv872 = zext i1 %cmp871 to i32
  %cmp873 = icmp slt i32 %conv872, 10264
  %conv874 = zext i1 %cmp873 to i32
  %call875 = call i32 @_ZL26safe_mul_func_uint32_t_u_ujj(i32 %337, i32 %conv874)
  %conv876 = trunc i32 %call875 to i16
  %346 = load i16* @_ZL4g_60, align 2
  %call877 = call zeroext i16 @_ZL26safe_mul_func_uint16_t_u_utt(i16 zeroext %conv876, i16 zeroext %346)
  %conv878 = zext i16 %call877 to i32
  %347 = load i32* %l_953, align 4
  %cmp879 = icmp ne i32 %conv878, %347
  %conv880 = zext i1 %cmp879 to i32
  %348 = load i16* %l_662, align 2
  %conv881 = sext i16 %348 to i32
  %cmp882 = icmp ne i32 %conv880, %conv881
  %conv883 = zext i1 %cmp882 to i16
  %349 = load i32* %l_703, align 4
  %conv884 = trunc i32 %349 to i16
  %call885 = call zeroext i16 @_ZL26safe_mul_func_uint16_t_u_utt(i16 zeroext %conv883, i16 zeroext %conv884)
  %conv886 = zext i16 %call885 to i32
  %xor887 = xor i32 -3, %conv886
  %cmp888 = icmp ule i32 %xor887, -3
  %conv889 = zext i1 %cmp888 to i16
  %350 = load i32* %l_953, align 4
  %call890 = call signext i16 @_ZL28safe_rshift_func_int16_t_s_ssi(i16 signext %conv889, i32 %350)
  %conv891 = sext i16 %call890 to i32
  %cmp892 = icmp sle i32 %conv852, %conv891
  %conv893 = zext i1 %cmp892 to i16
  %arrayidx894 = getelementptr inbounds [3 x i32]* %l_935, i32 0, i64 2
  %351 = load i32* %arrayidx894, align 4
  %conv895 = trunc i32 %351 to i16
  %call896 = call signext i16 @_ZL25safe_add_func_int16_t_s_sss(i16 signext %conv893, i16 signext %conv895)
  %call897 = call zeroext i16 @_ZL26safe_mul_func_uint16_t_u_utt(i16 zeroext %conv851, i16 zeroext %call896)
  %conv898 = zext i16 %call897 to i32
  %352 = load i32* getelementptr inbounds ([1 x [6 x i32]]* @_ZL5g_860, i32 0, i64 0, i64 4), align 4
  %or899 = or i32 %352, %conv898
  store i32 %or899, i32* getelementptr inbounds ([1 x [6 x i32]]* @_ZL5g_860, i32 0, i64 0, i64 4), align 4
  %tobool900 = icmp ne i32 %or899, 0
  br label %lor.end901

lor.end901:                                       ; preds = %land.end861, %for.body837
  %353 = phi i1 [ true, %for.body837 ], [ %tobool900, %land.end861 ]
  %conv902 = zext i1 %353 to i32
  %354 = load i32* @_ZL5g_859, align 4
  %cmp903 = icmp sge i32 %conv902, %354
  br i1 %cmp903, label %lor.end906, label %lor.rhs904

lor.rhs904:                                       ; preds = %lor.end901
  %355 = load i32* getelementptr inbounds ([10 x [5 x i32]]* @_ZL4g_49, i32 0, i64 8, i64 2), align 4
  %tobool905 = icmp ne i32 %355, 0
  br label %lor.end906

lor.end906:                                       ; preds = %lor.rhs904, %lor.end901
  %356 = phi i1 [ true, %lor.end901 ], [ %tobool905, %lor.rhs904 ]
  %conv907 = zext i1 %356 to i32
  %arrayidx908 = getelementptr inbounds [2 x [10 x [7 x i32]]]* %l_924, i32 0, i64 1
  %arrayidx909 = getelementptr inbounds [10 x [7 x i32]]* %arrayidx908, i32 0, i64 5
  %arrayidx910 = getelementptr inbounds [7 x i32]* %arrayidx909, i32 0, i64 5
  %357 = load i32* %arrayidx910, align 4
  %xor911 = xor i32 %357, %conv907
  store i32 %xor911, i32* %arrayidx910, align 4
  br label %for.inc912

for.inc912:                                       ; preds = %lor.end906
  %358 = load i16* @_ZL4g_60, align 2
  %conv913 = zext i16 %358 to i32
  %add914 = add nsw i32 %conv913, 1
  %conv915 = trunc i32 %add914 to i16
  store i16 %conv915, i16* @_ZL4g_60, align 2
  br label %for.cond834

for.end916:                                       ; preds = %for.cond834
  store i32 0, i32* @_ZL5g_930, align 4
  br label %for.cond917

for.cond917:                                      ; preds = %for.inc925, %for.end916
  %359 = load i32* @_ZL5g_930, align 4
  %cmp918 = icmp ule i32 %359, 0
  br i1 %cmp918, label %for.body919, label %for.end927

for.body919:                                      ; preds = %for.cond917
  store i32 -1, i32* %l_954, align 4
  %arrayidx920 = getelementptr inbounds [4 x i16]* %l_858, i32 0, i64 0
  %360 = load i16* %arrayidx920, align 2
  %conv921 = sext i16 %360 to i32
  %cmp922 = icmp uge i32 %conv921, -866495976
  %conv923 = zext i1 %cmp922 to i32
  %361 = load i32* %l_954, align 4
  %or924 = or i32 %361, %conv923
  store i32 %or924, i32* %l_954, align 4
  %362 = load i32* @_ZL5g_168, align 4
  store i32 %362, i32* %retval
  br label %return

for.inc925:                                       ; No predecessors!
  %363 = load i32* @_ZL5g_930, align 4
  %add926 = add i32 %363, 1
  store i32 %add926, i32* @_ZL5g_930, align 4
  br label %for.cond917

for.end927:                                       ; preds = %for.cond917
  store i32 -1, i32* %l_820, align 4
  %364 = load i32* getelementptr inbounds ([10 x [5 x i32]]* @_ZL4g_49, i32 0, i64 8, i64 2), align 4
  %cmp928 = icmp slt i32 %364, 556615199
  %conv929 = zext i1 %cmp928 to i32
  %arrayidx930 = getelementptr inbounds [3 x i32]* %l_935, i32 0, i64 2
  %365 = load i32* %arrayidx930, align 4
  %conv931 = trunc i32 %365 to i16
  %arrayidx932 = getelementptr inbounds [3 x i16]* %l_904, i32 0, i64 1
  %366 = load i16* %arrayidx932, align 2
  %conv933 = zext i16 %366 to i32
  %call934 = call signext i16 @_ZL28safe_lshift_func_int16_t_s_usj(i16 signext %conv931, i32 %conv933)
  %conv935 = sext i16 %call934 to i32
  %367 = load i32* @_ZL4g_55, align 4
  %conv936 = trunc i32 %367 to i16
  %call937 = call signext i16 @_ZL28safe_lshift_func_int16_t_s_ssi(i16 signext -27446, i32 5)
  %call938 = call signext i16 @_ZL28safe_rshift_func_int16_t_s_usj(i16 signext %call937, i32 9)
  %conv939 = sext i16 %call938 to i32
  %368 = load i32* getelementptr inbounds ([1 x [6 x i32]]* @_ZL5g_860, i32 0, i64 0, i64 5), align 4
  store i32 %368, i32* @_ZL5g_796, align 4
  %neg940 = xor i32 %368, -1
  %369 = load i32* @_ZL3g_2, align 4
  %xor941 = xor i32 %369, %neg940
  store i32 %xor941, i32* @_ZL3g_2, align 4
  %cmp942 = icmp sle i32 %xor941, 0
  %conv943 = zext i1 %cmp942 to i32
  %and944 = and i32 %conv939, %conv943
  %arrayidx945 = getelementptr inbounds [5 x [5 x [6 x i32]]]* %l_4, i32 0, i64 3
  %arrayidx946 = getelementptr inbounds [5 x [6 x i32]]* %arrayidx945, i32 0, i64 4
  %arrayidx947 = getelementptr inbounds [6 x i32]* %arrayidx946, i32 0, i64 5
  %370 = load i32* %arrayidx947, align 4
  %and948 = and i32 %370, %and944
  store i32 %and948, i32* %arrayidx947, align 4
  %conv949 = trunc i32 %and948 to i16
  %call950 = call signext i16 @_ZL25safe_mul_func_int16_t_s_sss(i16 signext %conv936, i16 signext %conv949)
  %conv951 = sext i16 %call950 to i32
  %or952 = or i32 %conv951, 1086401108
  %conv953 = trunc i32 %or952 to i16
  %371 = load i16* %l_679, align 2
  %call954 = call signext i16 @_ZL25safe_sub_func_int16_t_s_sss(i16 signext %conv953, i16 signext %371)
  %conv955 = sext i16 %call954 to i32
  %372 = load i16* %l_679, align 2
  %conv956 = zext i16 %372 to i32
  %cmp957 = icmp slt i32 %conv955, %conv956
  %conv958 = zext i1 %cmp957 to i32
  %call959 = call i32 @_ZL26safe_mod_func_uint32_t_u_ujj(i32 %conv958, i32 -481983742)
  %arrayidx960 = getelementptr inbounds [3 x i32]* %l_935, i32 0, i64 2
  %373 = load i32* %arrayidx960, align 4
  %cmp961 = icmp uge i32 %call959, %373
  %conv962 = zext i1 %cmp961 to i16
  %374 = load i32* @_ZL5g_615, align 4
  %conv963 = trunc i32 %374 to i16
  %call964 = call signext i16 @_ZL25safe_mod_func_int16_t_s_sss(i16 signext %conv962, i16 signext %conv963)
  %conv965 = sext i16 %call964 to i32
  %cmp966 = icmp slt i32 %conv935, %conv965
  %conv967 = zext i1 %cmp966 to i32
  %cmp968 = icmp ne i32 %conv967, 5
  %conv969 = zext i1 %cmp968 to i32
  %cmp970 = icmp sle i32 %conv929, %conv969
  %conv971 = zext i1 %cmp970 to i32
  %375 = load i32* @_ZL5g_398, align 4
  %cmp972 = icmp ule i32 %conv971, %375
  %conv973 = zext i1 %cmp972 to i16
  %arrayidx974 = getelementptr inbounds [9 x [3 x i32]]* %l_871, i32 0, i64 6
  %arrayidx975 = getelementptr inbounds [3 x i32]* %arrayidx974, i32 0, i64 2
  %376 = load i32* %arrayidx975, align 4
  %conv976 = trunc i32 %376 to i16
  %call977 = call zeroext i16 @_ZL26safe_div_func_uint16_t_u_utt(i16 zeroext %conv973, i16 zeroext %conv976)
  %conv978 = zext i16 %call977 to i32
  %call979 = call i32 @_ZL25safe_add_func_int32_t_s_sii(i32 -1, i32 %conv978)
  %tobool980 = icmp ne i32 %call979, 0
  br i1 %tobool980, label %land.rhs981, label %land.end983

land.rhs981:                                      ; preds = %for.end927
  %377 = load volatile i32* getelementptr inbounds ([5 x [1 x [2 x i32]]]* @_ZL5g_577, i32 0, i64 3, i64 0, i64 1), align 4
  %tobool982 = icmp ne i32 %377, 0
  br label %land.end983

land.end983:                                      ; preds = %land.rhs981, %for.end927
  %378 = phi i1 [ false, %for.end927 ], [ %tobool982, %land.rhs981 ]
  %conv984 = zext i1 %378 to i32
  store i32 %conv984, i32* %l_874, align 4
  store i32 0, i32* @_ZL4g_36, align 4
  br label %for.cond985

for.cond985:                                      ; preds = %for.inc992, %land.end983
  %379 = load i32* @_ZL4g_36, align 4
  %cmp986 = icmp ule i32 %379, 0
  br i1 %cmp986, label %for.body987, label %for.end994

for.body987:                                      ; preds = %for.cond985
  %380 = load i32* %l_730, align 4
  %xor988 = xor i32 %380, -1516255930
  store i32 %xor988, i32* %l_730, align 4
  %381 = load i32* %l_826, align 4
  %tobool989 = icmp ne i32 %381, 0
  br i1 %tobool989, label %if.then990, label %if.end991

if.then990:                                       ; preds = %for.body987
  br label %lbl_873

if.end991:                                        ; preds = %for.body987
  br label %for.inc992

for.inc992:                                       ; preds = %if.end991
  %382 = load i32* @_ZL4g_36, align 4
  %add993 = add i32 %382, 1
  store i32 %add993, i32* @_ZL4g_36, align 4
  br label %for.cond985

for.end994:                                       ; preds = %for.cond985
  br label %if.end995

if.end995:                                        ; preds = %for.end994, %if.end823
  br label %if.end996

if.end996:                                        ; preds = %if.end995, %lor.end328
  store i16 0, i16* @_ZL4g_60, align 2
  br label %for.cond997

for.cond997:                                      ; preds = %for.inc1647, %if.end996
  %383 = load i16* @_ZL4g_60, align 2
  %conv998 = zext i16 %383 to i32
  %cmp999 = icmp sle i32 %conv998, 0
  br i1 %cmp999, label %for.body1000, label %for.end1651

for.body1000:                                     ; preds = %for.cond997
  store i32 0, i32* %l_1099, align 4
  store i32 895541339, i32* %l_1125, align 4
  store i32 1, i32* %l_1196, align 4
  store i32 220256392, i32* %l_1250, align 4
  store i32 642727289, i32* %l_1252, align 4
  store i32 -40424173, i32* %l_1254, align 4
  store i32 1, i32* %l_1255, align 4
  %384 = load volatile i32* getelementptr inbounds ([5 x [1 x [2 x i32]]]* @_ZL5g_577, i32 0, i64 0, i64 0, i64 1), align 4
  %385 = load i32* @_ZL5g_615, align 4
  %386 = load i32* getelementptr inbounds ([1 x [6 x i32]]* @_ZL5g_860, i32 0, i64 0, i64 1), align 4
  %387 = load i32* %l_987, align 4
  %conv1001 = trunc i32 %387 to i16
  %call1002 = call zeroext i16 @_ZL29safe_rshift_func_uint16_t_u_sti(i16 zeroext %conv1001, i32 14)
  %conv1003 = zext i16 %call1002 to i32
  %call1004 = call i32 @_ZL32safe_unary_minus_func_uint32_t_uj(i32 -1)
  %conv1005 = trunc i32 %call1004 to i16
  %388 = load i32* @_ZL3g_2, align 4
  %conv1006 = trunc i32 %388 to i16
  %call1007 = call zeroext i16 @_ZL26safe_sub_func_uint16_t_u_utt(i16 zeroext %conv1005, i16 zeroext %conv1006)
  %conv1008 = zext i16 %call1007 to i32
  %389 = load i32* @_ZL5g_859, align 4
  %conv1009 = trunc i32 %389 to i16
  %call1010 = call zeroext i16 @_ZL26safe_mul_func_uint16_t_u_utt(i16 zeroext %conv1009, i16 zeroext 9)
  %conv1011 = zext i16 %call1010 to i32
  %390 = load i32* %l_826, align 4
  %or1012 = or i32 %conv1011, %390
  %conv1013 = trunc i32 %or1012 to i16
  %call1014 = call signext i16 @_ZL25safe_div_func_int16_t_s_sss(i16 signext %conv1013, i16 signext -4)
  %conv1015 = sext i16 %call1014 to i32
  %call1016 = call i32 @_ZL26safe_sub_func_uint32_t_u_ujj(i32 848993878, i32 %conv1015)
  %and1017 = and i32 0, %call1016
  %call1018 = call i32 @_ZL26safe_sub_func_uint32_t_u_ujj(i32 %conv1008, i32 %and1017)
  %cmp1019 = icmp eq i32 %call1018, 3
  %conv1020 = zext i1 %cmp1019 to i32
  %391 = load i32* @_ZL3g_2, align 4
  %xor1021 = xor i32 %conv1020, %391
  %call1022 = call i32 @_ZL26safe_add_func_uint32_t_u_ujj(i32 %conv1003, i32 %xor1021)
  %call1023 = call i32 @_ZL25safe_div_func_int32_t_s_sii(i32 %call1022, i32 8)
  store i32 %call1023, i32* @_ZL5g_622, align 4
  %tobool1024 = icmp ne i32 %call1023, 0
  br i1 %tobool1024, label %lor.end1026, label %lor.rhs1025

lor.rhs1025:                                      ; preds = %for.body1000
  br label %lor.end1026

lor.end1026:                                      ; preds = %lor.rhs1025, %for.body1000
  %392 = phi i1 [ true, %for.body1000 ], [ true, %lor.rhs1025 ]
  %conv1027 = zext i1 %392 to i32
  %cmp1028 = icmp ugt i32 %386, %conv1027
  %conv1029 = zext i1 %cmp1028 to i32
  %cmp1030 = icmp ne i32 %385, %conv1029
  %conv1031 = zext i1 %cmp1030 to i32
  %393 = load i32* @_ZL4g_36, align 4
  %cmp1032 = icmp ule i32 %conv1031, %393
  %conv1033 = zext i1 %cmp1032 to i16
  %394 = load i32* @_ZL3g_2, align 4
  %conv1034 = trunc i32 %394 to i16
  %call1035 = call signext i16 @_ZL25safe_mod_func_int16_t_s_sss(i16 signext %conv1033, i16 signext %conv1034)
  %conv1036 = sext i16 %call1035 to i32
  %395 = load i16* @_ZL4g_46, align 2
  %conv1037 = sext i16 %395 to i32
  %call1038 = call i32 @_ZL25safe_sub_func_int32_t_s_sii(i32 %conv1036, i32 %conv1037)
  %cmp1039 = icmp ne i32 %call1038, 7
  %conv1040 = zext i1 %cmp1039 to i32
  %and1041 = and i32 %384, %conv1040
  store i32 %and1041, i32* @_ZL5g_859, align 4
  %396 = load i32* @_ZL4g_55, align 4
  %397 = load i32* @_ZL5g_398, align 4
  %and1042 = and i32 %396, %397
  %398 = load i16* %l_679, align 2
  %arrayidx1043 = getelementptr inbounds [3 x i16]* %l_904, i32 0, i64 1
  %399 = load i16* %arrayidx1043, align 2
  %400 = load i32* @_ZL5g_796, align 4
  %401 = load i16* %l_688, align 2
  %call1044 = call zeroext i16 @_ZL29safe_rshift_func_uint16_t_u_utj(i16 zeroext %401, i32 12)
  %conv1045 = zext i16 %call1044 to i32
  %402 = load i32* @_ZL5g_168, align 4
  %cmp1046 = icmp ult i32 %conv1045, %402
  br i1 %cmp1046, label %lor.end1053, label %lor.rhs1047

lor.rhs1047:                                      ; preds = %lor.end1026
  %403 = load i32* %l_703, align 4
  %conv1048 = trunc i32 %403 to i16
  %call1049 = call zeroext i16 @_ZL26safe_mul_func_uint16_t_u_utt(i16 zeroext 883, i16 zeroext %conv1048)
  %conv1050 = zext i16 %call1049 to i32
  %call1051 = call i32 @_ZL26safe_mod_func_uint32_t_u_ujj(i32 %conv1050, i32 -1201278833)
  %tobool1052 = icmp ne i32 %call1051, 0
  br label %lor.end1053

lor.end1053:                                      ; preds = %lor.rhs1047, %lor.end1026
  %404 = phi i1 [ true, %lor.end1026 ], [ %tobool1052, %lor.rhs1047 ]
  %conv1054 = zext i1 %404 to i32
  %405 = load i32* %l_730, align 4
  %cmp1055 = icmp ne i32 %conv1054, %405
  %conv1056 = zext i1 %cmp1055 to i32
  %or1057 = or i32 %400, %conv1056
  %or1058 = or i32 %or1057, 16268
  %call1059 = call i32 @_ZL25safe_add_func_int32_t_s_sii(i32 %or1058, i32 1312589171)
  %406 = load volatile i32* @_ZL6g_1020, align 4
  %and1060 = and i32 %call1059, %406
  %call1061 = call zeroext i16 @_ZL29safe_lshift_func_uint16_t_u_utj(i16 zeroext 9997, i32 %and1060)
  %call1062 = call signext i16 @_ZL25safe_mod_func_int16_t_s_sss(i16 signext %399, i16 signext %call1061)
  %conv1063 = sext i16 %call1062 to i32
  %407 = load i16* @_ZL5g_394, align 2
  %conv1064 = zext i16 %407 to i32
  %cmp1065 = icmp sgt i32 %conv1063, %conv1064
  %conv1066 = zext i1 %cmp1065 to i16
  %call1067 = call signext i16 @_ZL28safe_lshift_func_int16_t_s_ssi(i16 signext %conv1066, i32 3)
  %conv1068 = sext i16 %call1067 to i32
  %conv1069 = trunc i32 %conv1068 to i16
  %call1070 = call signext i16 @_ZL25safe_sub_func_int16_t_s_sss(i16 signext %398, i16 signext %conv1069)
  %call1071 = call signext i16 @_ZL28safe_lshift_func_int16_t_s_usj(i16 signext %call1070, i32 14)
  %conv1072 = sext i16 %call1071 to i32
  %408 = load i32* @_ZL4g_48, align 4
  %cmp1073 = icmp sle i32 %conv1072, %408
  %conv1074 = zext i1 %cmp1073 to i32
  %or1075 = or i32 %conv1074, -2
  %tobool1076 = icmp ne i32 %or1075, 0
  br i1 %tobool1076, label %lor.end1078, label %lor.rhs1077

lor.rhs1077:                                      ; preds = %lor.end1053
  br label %lor.end1078

lor.end1078:                                      ; preds = %lor.rhs1077, %lor.end1053
  %409 = phi i1 [ true, %lor.end1053 ], [ true, %lor.rhs1077 ]
  %conv1079 = zext i1 %409 to i16
  store i16 %conv1079, i16* @_ZL5g_394, align 2
  %conv1080 = zext i16 %conv1079 to i32
  store i32 %conv1080, i32* @_ZL6g_1021, align 4
  %conv1081 = trunc i32 %conv1080 to i16
  %call1082 = call zeroext i16 @_ZL26safe_mul_func_uint16_t_u_utt(i16 zeroext %conv1081, i16 zeroext 9006)
  %conv1083 = zext i16 %call1082 to i32
  %410 = load i32* @_ZL4g_55, align 4
  %or1084 = or i32 %conv1083, %410
  %cmp1085 = icmp eq i32 %and1042, %or1084
  %conv1086 = zext i1 %cmp1085 to i32
  %arrayidx1087 = getelementptr inbounds [4 x i16]* %l_858, i32 0, i64 3
  %411 = load i16* %arrayidx1087, align 2
  %conv1088 = sext i16 %411 to i32
  %cmp1089 = icmp slt i32 %conv1086, %conv1088
  br i1 %cmp1089, label %if.then1090, label %if.else1508

if.then1090:                                      ; preds = %lor.end1078
  store i16 -6, i16* %l_1030, align 2
  store i16 1, i16* %l_1126, align 2
  store i32 0, i32* %i1091, align 4
  br label %for.cond1092

for.cond1092:                                     ; preds = %for.inc1097, %if.then1090
  %412 = load i32* %i1091, align 4
  %cmp1093 = icmp slt i32 %412, 4
  br i1 %cmp1093, label %for.body1094, label %for.end1099

for.body1094:                                     ; preds = %for.cond1092
  %413 = load i32* %i1091, align 4
  %idxprom1095 = sext i32 %413 to i64
  %arrayidx1096 = getelementptr inbounds [4 x i32]* %l_1038, i32 0, i64 %idxprom1095
  store i32 1, i32* %arrayidx1096, align 4
  br label %for.inc1097

for.inc1097:                                      ; preds = %for.body1094
  %414 = load i32* %i1091, align 4
  %inc1098 = add nsw i32 %414, 1
  store i32 %inc1098, i32* %i1091, align 4
  br label %for.cond1092

for.end1099:                                      ; preds = %for.cond1092
  %415 = load i32* getelementptr inbounds ([1 x [6 x i32]]* @_ZL5g_860, i32 0, i64 0, i64 4), align 4
  %conv1100 = trunc i32 %415 to i16
  %416 = load volatile i32* getelementptr inbounds ([5 x [1 x [2 x i32]]]* @_ZL5g_577, i32 0, i64 0, i64 0, i64 1), align 4
  %cmp1101 = icmp sgt i32 10577, %416
  %conv1102 = zext i1 %cmp1101 to i32
  %cmp1103 = icmp sgt i32 %conv1102, 54011
  %conv1104 = zext i1 %cmp1103 to i32
  %417 = load i32* @_ZL5g_622, align 4
  %conv1105 = trunc i32 %417 to i16
  store i16 %conv1105, i16* %l_1030, align 2
  %418 = load i32* %l_1031, align 4
  %conv1106 = trunc i32 %418 to i16
  %call1107 = call zeroext i16 @_ZL26safe_mul_func_uint16_t_u_utt(i16 zeroext %conv1105, i16 zeroext %conv1106)
  %conv1108 = zext i16 %call1107 to i32
  %419 = load i32* @_ZL4g_36, align 4
  %cmp1109 = icmp eq i32 %419, 0
  %conv1110 = zext i1 %cmp1109 to i32
  %cmp1111 = icmp sgt i32 %conv1108, %conv1110
  %conv1112 = zext i1 %cmp1111 to i16
  %arrayidx1113 = getelementptr inbounds [4 x i32]* %l_1038, i32 0, i64 3
  %420 = load i32* %arrayidx1113, align 4
  %call1114 = call i32 @_ZL25safe_mod_func_int32_t_s_sii(i32 %420, i32 -3)
  %conv1115 = trunc i32 %call1114 to i16
  %421 = load i32* getelementptr inbounds ([10 x [5 x i32]]* @_ZL4g_49, i32 0, i64 8, i64 2), align 4
  %call1116 = call signext i16 @_ZL28safe_lshift_func_int16_t_s_ssi(i16 signext %conv1115, i32 %421)
  %conv1117 = sext i16 %call1116 to i32
  %arrayidx1118 = getelementptr inbounds [4 x i32]* %l_1038, i32 0, i64 3
  %422 = load i32* %arrayidx1118, align 4
  %cmp1119 = icmp sgt i32 %conv1117, %422
  %conv1120 = zext i1 %cmp1119 to i16
  %423 = load i32* %l_1031, align 4
  %call1121 = call signext i16 @_ZL28safe_lshift_func_int16_t_s_ssi(i16 signext %conv1120, i32 %423)
  %call1122 = call zeroext i16 @_ZL26safe_mod_func_uint16_t_u_utt(i16 zeroext %conv1112, i16 zeroext %call1121)
  %conv1123 = zext i16 %call1122 to i32
  %424 = load i32* @_ZL5g_168, align 4
  %call1124 = call i32 @_ZL26safe_div_func_uint32_t_u_ujj(i32 %conv1123, i32 %424)
  %cmp1125 = icmp ugt i32 %conv1104, %call1124
  %conv1126 = zext i1 %cmp1125 to i32
  %425 = load i16* @_ZL5g_394, align 2
  %conv1127 = zext i16 %425 to i32
  %or1128 = or i32 %conv1127, %conv1126
  %conv1129 = trunc i32 %or1128 to i16
  store i16 %conv1129, i16* @_ZL5g_394, align 2
  %call1130 = call zeroext i16 @_ZL26safe_mod_func_uint16_t_u_utt(i16 zeroext %conv1100, i16 zeroext %conv1129)
  %tobool1131 = icmp ne i16 %call1130, 0
  br i1 %tobool1131, label %if.then1132, label %if.else1136

if.then1132:                                      ; preds = %for.end1099
  %426 = load volatile i32* getelementptr inbounds ([5 x [1 x [2 x i32]]]* @_ZL5g_577, i32 0, i64 1, i64 0, i64 1), align 4
  %arrayidx1133 = getelementptr inbounds [5 x [5 x [6 x i32]]]* %l_4, i32 0, i64 3
  %arrayidx1134 = getelementptr inbounds [5 x [6 x i32]]* %arrayidx1133, i32 0, i64 4
  %arrayidx1135 = getelementptr inbounds [6 x i32]* %arrayidx1134, i32 0, i64 5
  store i32 %426, i32* %arrayidx1135, align 4
  br label %if.end1148

if.else1136:                                      ; preds = %for.end1099
  store i16 -6, i16* %l_1039, align 2
  %arrayidx1137 = getelementptr inbounds [9 x [3 x i32]]* %l_871, i32 0, i64 4
  %arrayidx1138 = getelementptr inbounds [3 x i32]* %arrayidx1137, i32 0, i64 1
  %427 = load i32* %arrayidx1138, align 4
  %tobool1139 = icmp ne i32 %427, 0
  br i1 %tobool1139, label %if.then1140, label %if.end1141

if.then1140:                                      ; preds = %if.else1136
  br label %for.end1651

if.end1141:                                       ; preds = %if.else1136
  %428 = load i32* @_ZL5g_396, align 4
  %429 = load i16* %l_688, align 2
  %conv1142 = sext i16 %429 to i32
  %cmp1143 = icmp ult i32 %428, %conv1142
  %conv1144 = zext i1 %cmp1143 to i32
  %430 = load i16* %l_1039, align 2
  %conv1145 = sext i16 %430 to i32
  %and1146 = and i32 %conv1145, %conv1144
  %conv1147 = trunc i32 %and1146 to i16
  store i16 %conv1147, i16* %l_1039, align 2
  br label %if.end1148

if.end1148:                                       ; preds = %if.end1141, %if.then1132
  %431 = load volatile i32* @_ZL5g_778, align 4
  %432 = load i32* @_ZL5g_166, align 4
  %conv1149 = trunc i32 %432 to i16
  %call1150 = call zeroext i16 @_ZL32safe_unary_minus_func_uint16_t_ut(i16 zeroext %conv1149)
  %conv1151 = zext i16 %call1150 to i32
  %433 = load i32* @_ZL6g_1021, align 4
  %tobool1152 = icmp ne i32 %433, 0
  br i1 %tobool1152, label %land.lhs.true, label %land.end1211

land.lhs.true:                                    ; preds = %if.end1148
  %434 = load i32* %l_861, align 4
  %435 = load i32* getelementptr inbounds ([1 x [6 x i32]]* @_ZL5g_860, i32 0, i64 0, i64 4), align 4
  %436 = load i32* @_ZL5g_859, align 4
  %tobool1153 = icmp ne i32 %436, 0
  br i1 %tobool1153, label %land.rhs1154, label %land.end1155

land.rhs1154:                                     ; preds = %land.lhs.true
  br label %land.end1155

land.end1155:                                     ; preds = %land.rhs1154, %land.lhs.true
  %437 = phi i1 [ false, %land.lhs.true ], [ true, %land.rhs1154 ]
  %conv1156 = zext i1 %437 to i32
  %cmp1157 = icmp ne i32 %435, %conv1156
  %conv1158 = zext i1 %cmp1157 to i32
  %438 = load i16* @_ZL5g_394, align 2
  %tobool1159 = icmp ne i16 %438, 0
  br i1 %tobool1159, label %land.rhs1160, label %land.end1162

land.rhs1160:                                     ; preds = %land.end1155
  %439 = load i32* %l_703, align 4
  %tobool1161 = icmp ne i32 %439, 0
  br label %land.end1162

land.end1162:                                     ; preds = %land.rhs1160, %land.end1155
  %440 = phi i1 [ false, %land.end1155 ], [ %tobool1161, %land.rhs1160 ]
  %conv1163 = zext i1 %440 to i32
  %441 = load i32* @_ZL5g_489, align 4
  %cmp1164 = icmp sge i32 %conv1163, %441
  %conv1165 = zext i1 %cmp1164 to i32
  store i32 %conv1165, i32* @_ZL4g_36, align 4
  %call1166 = call i32 @_ZL26safe_add_func_uint32_t_u_ujj(i32 %conv1158, i32 %conv1165)
  %and1167 = and i32 %call1166, 0
  %conv1168 = trunc i32 %and1167 to i16
  %arrayidx1169 = getelementptr inbounds [3 x i16]* %l_904, i32 0, i64 1
  %442 = load i16* %arrayidx1169, align 2
  %call1170 = call zeroext i16 @_ZL26safe_add_func_uint16_t_u_utt(i16 zeroext %conv1168, i16 zeroext %442)
  %conv1171 = zext i16 %call1170 to i32
  %cmp1172 = icmp sle i32 %conv1171, 16336
  %conv1173 = zext i1 %cmp1172 to i16
  %443 = load i32* @_ZL5g_796, align 4
  %conv1174 = trunc i32 %443 to i16
  %call1175 = call zeroext i16 @_ZL26safe_add_func_uint16_t_u_utt(i16 zeroext %conv1173, i16 zeroext %conv1174)
  %444 = load i16* %l_1030, align 2
  %call1176 = call zeroext i16 @_ZL26safe_mod_func_uint16_t_u_utt(i16 zeroext %call1175, i16 zeroext %444)
  %conv1177 = zext i16 %call1176 to i32
  %445 = load i32* %l_730, align 4
  %or1178 = or i32 %445, %conv1177
  store i32 %or1178, i32* %l_730, align 4
  %446 = load i32* %l_826, align 4
  %cmp1179 = icmp ugt i32 %or1178, %446
  %conv1180 = zext i1 %cmp1179 to i32
  %arrayidx1181 = getelementptr inbounds [4 x i16]* %l_858, i32 0, i64 3
  %447 = load i16* %arrayidx1181, align 2
  %conv1182 = sext i16 %447 to i32
  %xor1183 = xor i32 %conv1180, %conv1182
  %neg1184 = xor i32 %xor1183, -1
  store i32 %neg1184, i32* %l_703, align 4
  %cmp1185 = icmp sle i32 %neg1184, 0
  %conv1186 = zext i1 %cmp1185 to i32
  %448 = load i32* @_ZL5g_398, align 4
  %call1187 = call i32 @_ZL26safe_mod_func_uint32_t_u_ujj(i32 %conv1186, i32 %448)
  %449 = load i16* %l_688, align 2
  %conv1188 = sext i16 %449 to i32
  %cmp1189 = icmp ugt i32 %call1187, %conv1188
  %conv1190 = zext i1 %cmp1189 to i16
  %call1191 = call signext i16 @_ZL25safe_mod_func_int16_t_s_sss(i16 signext %conv1190, i16 signext 1)
  %conv1192 = sext i16 %call1191 to i32
  %cmp1193 = icmp sge i32 %434, %conv1192
  %conv1194 = zext i1 %cmp1193 to i32
  %450 = load i32* @_ZL5g_168, align 4
  %cmp1195 = icmp ult i32 %conv1194, %450
  %conv1196 = zext i1 %cmp1195 to i16
  %451 = load i32* getelementptr inbounds ([1 x [6 x i32]]* @_ZL5g_860, i32 0, i64 0, i64 4), align 4
  %conv1197 = trunc i32 %451 to i16
  %call1198 = call signext i16 @_ZL25safe_mod_func_int16_t_s_sss(i16 signext %conv1196, i16 signext %conv1197)
  %452 = load i32* @_ZL3g_2, align 4
  %conv1199 = trunc i32 %452 to i16
  %call1200 = call signext i16 @_ZL25safe_sub_func_int16_t_s_sss(i16 signext %call1198, i16 signext %conv1199)
  %conv1201 = sext i16 %call1200 to i32
  %cmp1202 = icmp eq i32 %conv1201, -1
  %conv1203 = zext i1 %cmp1202 to i16
  %call1204 = call signext i16 @_ZL25safe_add_func_int16_t_s_sss(i16 signext %conv1203, i16 signext -12955)
  %tobool1205 = icmp ne i16 %call1204, 0
  br i1 %tobool1205, label %land.rhs1206, label %land.end1211

land.rhs1206:                                     ; preds = %land.end1162
  %arrayidx1207 = getelementptr inbounds [5 x [5 x [6 x i32]]]* %l_4, i32 0, i64 3
  %arrayidx1208 = getelementptr inbounds [5 x [6 x i32]]* %arrayidx1207, i32 0, i64 4
  %arrayidx1209 = getelementptr inbounds [6 x i32]* %arrayidx1208, i32 0, i64 5
  %453 = load i32* %arrayidx1209, align 4
  %tobool1210 = icmp ne i32 %453, 0
  br label %land.end1211

land.end1211:                                     ; preds = %land.rhs1206, %land.end1162, %if.end1148
  %454 = phi i1 [ false, %land.end1162 ], [ false, %if.end1148 ], [ %tobool1210, %land.rhs1206 ]
  %conv1212 = zext i1 %454 to i32
  %cmp1213 = icmp sgt i32 1451281337, %conv1212
  %conv1214 = zext i1 %cmp1213 to i32
  %cmp1215 = icmp sgt i32 %conv1151, %conv1214
  %conv1216 = zext i1 %cmp1215 to i32
  %455 = load i32* @_ZL5g_796, align 4
  %and1217 = and i32 %conv1216, %455
  %arrayidx1218 = getelementptr inbounds [3 x i16]* %l_904, i32 0, i64 2
  %456 = load i16* %arrayidx1218, align 2
  %conv1219 = zext i16 %456 to i32
  %cmp1220 = icmp ule i32 %and1217, %conv1219
  %conv1221 = zext i1 %cmp1220 to i32
  %457 = load i16* @_ZL6g_1066, align 2
  %conv1222 = zext i16 %457 to i32
  %or1223 = or i32 %conv1222, %conv1221
  %conv1224 = trunc i32 %or1223 to i16
  store i16 %conv1224, i16* @_ZL6g_1066, align 2
  %call1225 = call zeroext i16 @_ZL26safe_add_func_uint16_t_u_utt(i16 zeroext %conv1224, i16 zeroext -1)
  %conv1226 = zext i16 %call1225 to i32
  %cmp1227 = icmp ne i32 %431, %conv1226
  %conv1228 = zext i1 %cmp1227 to i32
  %cmp1229 = icmp ugt i32 %conv1228, 5
  %conv1230 = zext i1 %cmp1229 to i32
  %458 = load i32* %l_1031, align 4
  %cmp1231 = icmp ugt i32 %conv1230, %458
  br i1 %cmp1231, label %if.then1232, label %if.else1248

if.then1232:                                      ; preds = %land.end1211
  %459 = load i32* @_ZL5g_398, align 4
  %conv1233 = trunc i32 %459 to i16
  store i16 -29456, i16* %l_1073, align 2
  %460 = load i32* getelementptr inbounds ([10 x [5 x i32]]* @_ZL4g_49, i32 0, i64 6, i64 2), align 4
  %or1234 = or i32 %460, 28999
  %cmp1235 = icmp uge i32 %or1234, 852903860
  %conv1236 = zext i1 %cmp1235 to i32
  %cmp1237 = icmp sge i32 -29456, %conv1236
  %conv1238 = zext i1 %cmp1237 to i32
  %cmp1239 = icmp sge i32 1, %conv1238
  %conv1240 = zext i1 %cmp1239 to i16
  store i16 %conv1240, i16* @_ZL5g_394, align 2
  %conv1241 = zext i16 %conv1240 to i32
  %461 = load i16* @_ZL4g_46, align 2
  %conv1242 = sext i16 %461 to i32
  %and1243 = and i32 %conv1241, %conv1242
  %conv1244 = trunc i32 %and1243 to i16
  %call1245 = call zeroext i16 @_ZL26safe_mul_func_uint16_t_u_utt(i16 zeroext %conv1233, i16 zeroext %conv1244)
  %conv1246 = zext i16 %call1245 to i32
  %and1247 = and i32 %conv1246, 30461
  store i32 %and1247, i32* getelementptr inbounds ([10 x [5 x i32]]* @_ZL4g_49, i32 0, i64 8, i64 2), align 4
  br label %if.end1386

if.else1248:                                      ; preds = %land.end1211
  store i16 9, i16* %l_1074, align 2
  store i16 0, i16* %l_1074, align 2
  %462 = load volatile i16* @_ZL5g_277, align 2
  %463 = load i32* %l_703, align 4
  %464 = load i32* @_ZL5g_930, align 4
  %tobool1249 = icmp ne i32 %464, 0
  br i1 %tobool1249, label %land.rhs1250, label %land.end1290

land.rhs1250:                                     ; preds = %if.else1248
  %465 = load i32* @_ZL6g_1021, align 4
  %arrayidx1251 = getelementptr inbounds [4 x i32]* %l_1038, i32 0, i64 1
  store i32 %465, i32* %arrayidx1251, align 4
  %call1252 = call signext i16 @_ZL28safe_rshift_func_int16_t_s_usj(i16 signext 1, i32 %465)
  %call1253 = call signext i16 @_ZL25safe_mul_func_int16_t_s_sss(i16 signext %call1252, i16 signext 1)
  %conv1254 = sext i16 %call1253 to i32
  %466 = load i32* @_ZL4g_48, align 4
  %tobool1255 = icmp ne i32 %466, 0
  br i1 %tobool1255, label %lor.end1271, label %lor.rhs1256

lor.rhs1256:                                      ; preds = %land.rhs1250
  %467 = load i32* %l_1099, align 4
  %conv1257 = trunc i32 %467 to i16
  %arrayidx1258 = getelementptr inbounds [3 x i16]* %l_904, i32 0, i64 1
  %468 = load i16* %arrayidx1258, align 2
  %conv1259 = zext i16 %468 to i32
  %call1260 = call zeroext i16 @_ZL29safe_rshift_func_uint16_t_u_utj(i16 zeroext %conv1257, i32 %conv1259)
  %tobool1261 = icmp ne i16 %call1260, 0
  br i1 %tobool1261, label %lor.end1264, label %lor.rhs1262

lor.rhs1262:                                      ; preds = %lor.rhs1256
  %469 = load i32* @_ZL5g_396, align 4
  %tobool1263 = icmp ne i32 %469, 0
  br label %lor.end1264

lor.end1264:                                      ; preds = %lor.rhs1262, %lor.rhs1256
  %470 = phi i1 [ true, %lor.rhs1256 ], [ %tobool1263, %lor.rhs1262 ]
  %conv1265 = zext i1 %470 to i32
  store i32 %conv1265, i32* @_ZL4g_55, align 4
  br i1 %470, label %land.rhs1266, label %land.end1268

land.rhs1266:                                     ; preds = %lor.end1264
  %471 = load i16* @_ZL4g_60, align 2
  %tobool1267 = icmp ne i16 %471, 0
  br label %land.end1268

land.end1268:                                     ; preds = %land.rhs1266, %lor.end1264
  %472 = phi i1 [ false, %lor.end1264 ], [ %tobool1267, %land.rhs1266 ]
  %conv1269 = zext i1 %472 to i32
  %cmp1270 = icmp ule i32 %conv1269, -789080682
  br label %lor.end1271

lor.end1271:                                      ; preds = %land.end1268, %land.rhs1250
  %473 = phi i1 [ true, %land.rhs1250 ], [ %cmp1270, %land.end1268 ]
  %conv1272 = zext i1 %473 to i16
  %474 = load i32* getelementptr inbounds ([1 x [6 x i32]]* @_ZL5g_860, i32 0, i64 0, i64 4), align 4
  %conv1273 = trunc i32 %474 to i16
  %call1274 = call zeroext i16 @_ZL26safe_add_func_uint16_t_u_utt(i16 zeroext %conv1272, i16 zeroext %conv1273)
  %conv1275 = zext i16 %call1274 to i32
  %475 = load i32* getelementptr inbounds ([10 x [5 x i32]]* @_ZL4g_49, i32 0, i64 5, i64 4), align 4
  %and1276 = and i32 %conv1275, %475
  %conv1277 = trunc i32 %and1276 to i16
  %476 = load i16* @_ZL6g_1066, align 2
  %call1278 = call signext i16 @_ZL25safe_add_func_int16_t_s_sss(i16 signext %conv1277, i16 signext %476)
  %477 = load i16* %l_1030, align 2
  %call1279 = call zeroext i16 @_ZL26safe_add_func_uint16_t_u_utt(i16 zeroext %call1278, i16 zeroext %477)
  %tobool1280 = icmp ne i16 %call1279, 0
  br i1 %tobool1280, label %land.rhs1281, label %land.end1282

land.rhs1281:                                     ; preds = %lor.end1271
  br label %land.end1282

land.end1282:                                     ; preds = %land.rhs1281, %lor.end1271
  %478 = phi i1 [ false, %lor.end1271 ], [ true, %land.rhs1281 ]
  %conv1283 = zext i1 %478 to i16
  %479 = load i32* %l_1099, align 4
  %conv1284 = trunc i32 %479 to i16
  %call1285 = call zeroext i16 @_ZL26safe_add_func_uint16_t_u_utt(i16 zeroext %conv1283, i16 zeroext %conv1284)
  %conv1286 = zext i16 %call1285 to i32
  %cmp1287 = icmp sle i32 %conv1254, %conv1286
  %conv1288 = zext i1 %cmp1287 to i32
  %480 = load i32* %l_730, align 4
  %cmp1289 = icmp ne i32 %conv1288, %480
  br label %land.end1290

land.end1290:                                     ; preds = %land.end1282, %if.else1248
  %481 = phi i1 [ false, %if.else1248 ], [ %cmp1289, %land.end1282 ]
  %conv1291 = zext i1 %481 to i16
  %call1292 = call signext i16 @_ZL25safe_mul_func_int16_t_s_sss(i16 signext %conv1291, i16 signext 1)
  %conv1293 = sext i16 %call1292 to i32
  %call1294 = call i32 @_ZL26safe_div_func_uint32_t_u_ujj(i32 %463, i32 %conv1293)
  %482 = load i16* %l_1074, align 2
  %conv1295 = sext i16 %482 to i32
  %cmp1296 = icmp uge i32 %call1294, %conv1295
  br i1 %cmp1296, label %lor.end1298, label %lor.rhs1297

lor.rhs1297:                                      ; preds = %land.end1290
  br label %lor.end1298

lor.end1298:                                      ; preds = %lor.rhs1297, %land.end1290
  %483 = phi i1 [ true, %land.end1290 ], [ true, %lor.rhs1297 ]
  %conv1299 = zext i1 %483 to i16
  %call1300 = call signext i16 @_ZL25safe_div_func_int16_t_s_sss(i16 signext %462, i16 signext %conv1299)
  %conv1301 = sext i16 %call1300 to i32
  %484 = load i32* getelementptr inbounds ([1 x [6 x i32]]* @_ZL5g_860, i32 0, i64 0, i64 3), align 4
  %and1302 = and i32 %conv1301, %484
  %485 = load i16* %l_679, align 2
  %conv1303 = zext i16 %485 to i32
  %cmp1304 = icmp ne i32 %and1302, %conv1303
  %conv1305 = zext i1 %cmp1304 to i32
  %486 = load i16* @_ZL4g_46, align 2
  %conv1306 = sext i16 %486 to i32
  %cmp1307 = icmp sgt i32 %conv1305, %conv1306
  %conv1308 = zext i1 %cmp1307 to i32
  %487 = load i16* %l_1030, align 2
  %conv1309 = sext i16 %487 to i32
  %and1310 = and i32 %conv1308, %conv1309
  %cmp1311 = icmp ne i32 %and1310, 2
  %conv1312 = zext i1 %cmp1311 to i32
  %488 = load i16* @_ZL4g_46, align 2
  %conv1313 = sext i16 %488 to i32
  %cmp1314 = icmp ne i32 %conv1312, %conv1313
  %conv1315 = zext i1 %cmp1314 to i32
  %cmp1316 = icmp slt i32 24332, %conv1315
  %conv1317 = zext i1 %cmp1316 to i16
  %call1318 = call signext i16 @_ZL25safe_mul_func_int16_t_s_sss(i16 signext %conv1317, i16 signext -4184)
  %489 = load i32* @_ZL4g_36, align 4
  %conv1319 = trunc i32 %489 to i16
  %call1320 = call signext i16 @_ZL25safe_mod_func_int16_t_s_sss(i16 signext %call1318, i16 signext %conv1319)
  %conv1321 = sext i16 %call1320 to i32
  store i32 %conv1321, i32* %l_1100, align 4
  %490 = load i32* %l_1099, align 4
  %conv1322 = trunc i32 %490 to i16
  %call1323 = call signext i16 @_ZL28safe_rshift_func_int16_t_s_ssi(i16 signext %conv1322, i32 6)
  %conv1324 = sext i16 %call1323 to i32
  %491 = load i16* @_ZL5g_394, align 2
  %492 = load i32* getelementptr inbounds ([1 x [6 x i32]]* @_ZL5g_860, i32 0, i64 0, i64 4), align 4
  %493 = load i32* @_ZL3g_2, align 4
  %494 = load i32* %l_1099, align 4
  store i32 %494, i32* @_ZL5g_396, align 4
  %cmp1325 = icmp eq i32 %493, %494
  %conv1326 = zext i1 %cmp1325 to i32
  %495 = load i32* @_ZL4g_55, align 4
  %conv1327 = trunc i32 %495 to i16
  %496 = load i16* @_ZL5g_394, align 2
  %497 = load i32* @_ZL4g_33, align 4
  %conv1328 = trunc i32 %497 to i16
  store i16 %conv1328, i16* %l_1124, align 2
  %conv1329 = sext i16 %conv1328 to i32
  %neg1330 = xor i32 %conv1329, -1
  %498 = load i32* %l_861, align 4
  %or1331 = or i32 %498, %neg1330
  store i32 %or1331, i32* %l_861, align 4
  %arrayidx1332 = getelementptr inbounds [4 x i16]* %l_858, i32 0, i64 3
  %499 = load i16* %arrayidx1332, align 2
  %conv1333 = sext i16 %499 to i32
  %cmp1334 = icmp sge i32 %or1331, %conv1333
  %conv1335 = zext i1 %cmp1334 to i16
  %call1336 = call signext i16 @_ZL25safe_add_func_int16_t_s_sss(i16 signext %496, i16 signext %conv1335)
  %call1337 = call signext i16 @_ZL25safe_mod_func_int16_t_s_sss(i16 signext %conv1327, i16 signext %call1336)
  %conv1338 = sext i16 %call1337 to i32
  %and1339 = and i32 %conv1338, 20258
  %cmp1340 = icmp sgt i32 %and1339, -1
  %conv1341 = zext i1 %cmp1340 to i32
  %and1342 = and i32 %conv1326, %conv1341
  %conv1343 = trunc i32 %and1342 to i16
  %call1344 = call zeroext i16 @_ZL29safe_rshift_func_uint16_t_u_sti(i16 zeroext %conv1343, i32 15)
  %tobool1345 = icmp ne i16 %call1344, 0
  br i1 %tobool1345, label %land.rhs1346, label %land.end1348

land.rhs1346:                                     ; preds = %lor.end1298
  %500 = load i16* %l_1073, align 2
  %tobool1347 = icmp ne i16 %500, 0
  br label %land.end1348

land.end1348:                                     ; preds = %land.rhs1346, %lor.end1298
  %501 = phi i1 [ false, %lor.end1298 ], [ %tobool1347, %land.rhs1346 ]
  %conv1349 = zext i1 %501 to i32
  %502 = load i32* %l_703, align 4
  %or1350 = or i32 %502, %conv1349
  store i32 %or1350, i32* %l_703, align 4
  %xor1351 = xor i32 %or1350, 7
  store i32 %xor1351, i32* %l_1125, align 4
  %cmp1352 = icmp sgt i32 %xor1351, 132324338
  %conv1353 = zext i1 %cmp1352 to i32
  %cmp1354 = icmp uge i32 %492, %conv1353
  %conv1355 = zext i1 %cmp1354 to i16
  %call1356 = call zeroext i16 @_ZL26safe_add_func_uint16_t_u_utt(i16 zeroext %conv1355, i16 zeroext 15888)
  %503 = load volatile i32* @_ZL5g_778, align 4
  %conv1357 = trunc i32 %503 to i16
  %call1358 = call zeroext i16 @_ZL26safe_sub_func_uint16_t_u_utt(i16 zeroext %call1356, i16 zeroext %conv1357)
  %call1359 = call zeroext i16 @_ZL29safe_lshift_func_uint16_t_u_sti(i16 zeroext %call1358, i32 2)
  %conv1360 = zext i16 %call1359 to i32
  %call1361 = call i32 @_ZL26safe_add_func_uint32_t_u_ujj(i32 %conv1360, i32 -4)
  %conv1362 = trunc i32 %call1361 to i16
  %call1363 = call zeroext i16 @_ZL32safe_unary_minus_func_uint16_t_ut(i16 zeroext %conv1362)
  %call1364 = call signext i16 @_ZL25safe_mod_func_int16_t_s_sss(i16 signext %491, i16 signext %call1363)
  %tobool1365 = icmp ne i16 %call1364, 0
  br i1 %tobool1365, label %lor.end1368, label %lor.rhs1366

lor.rhs1366:                                      ; preds = %land.end1348
  %504 = load i16* %l_1126, align 2
  %tobool1367 = icmp ne i16 %504, 0
  br label %lor.end1368

lor.end1368:                                      ; preds = %lor.rhs1366, %land.end1348
  %505 = phi i1 [ true, %land.end1348 ], [ %tobool1367, %lor.rhs1366 ]
  %conv1369 = zext i1 %505 to i32
  %cmp1370 = icmp sge i32 %conv1369, 0
  %conv1371 = zext i1 %cmp1370 to i16
  %call1372 = call zeroext i16 @_ZL26safe_mul_func_uint16_t_u_utt(i16 zeroext -3, i16 zeroext %conv1371)
  %conv1373 = zext i16 %call1372 to i32
  %call1374 = call i32 @_ZL32safe_unary_minus_func_uint32_t_uj(i32 %conv1373)
  %506 = load i16* %l_1030, align 2
  %conv1375 = sext i16 %506 to i32
  %cmp1376 = icmp ugt i32 %call1374, %conv1375
  %conv1377 = zext i1 %cmp1376 to i32
  %cmp1378 = icmp eq i32 %conv1324, %conv1377
  %conv1379 = zext i1 %cmp1378 to i16
  store i16 %conv1379, i16* @_ZL5g_394, align 2
  %conv1380 = zext i16 %conv1379 to i32
  %arrayidx1381 = getelementptr inbounds [4 x i16]* %l_858, i32 0, i64 3
  %507 = load i16* %arrayidx1381, align 2
  %conv1382 = sext i16 %507 to i32
  %cmp1383 = icmp eq i32 %conv1380, %conv1382
  %conv1384 = zext i1 %cmp1383 to i32
  %508 = load i32* getelementptr inbounds ([10 x [5 x i32]]* @_ZL4g_49, i32 0, i64 8, i64 2), align 4
  %and1385 = and i32 %508, %conv1384
  store i32 %and1385, i32* getelementptr inbounds ([10 x [5 x i32]]* @_ZL4g_49, i32 0, i64 8, i64 2), align 4
  br label %if.end1386

if.end1386:                                       ; preds = %lor.end1368, %if.then1232
  %509 = load i32* @_ZL5g_796, align 4
  %510 = load i16* %l_1073, align 2
  %conv1387 = sext i16 %510 to i32
  %cmp1388 = icmp ne i32 %509, %conv1387
  %conv1389 = zext i1 %cmp1388 to i32
  %neg1390 = xor i32 %conv1389, -1
  store i32 %neg1390, i32* %l_1125, align 4
  %cmp1391 = icmp uge i32 -1316798867, %neg1390
  %conv1392 = zext i1 %cmp1391 to i32
  store i32 %conv1392, i32* @_ZL5g_396, align 4
  %511 = load i16* @_ZL5g_394, align 2
  %inc1393 = add i16 %511, 1
  store i16 %inc1393, i16* @_ZL5g_394, align 2
  %512 = load volatile i32* getelementptr inbounds ([5 x [1 x [2 x i32]]]* @_ZL5g_577, i32 0, i64 0, i64 0, i64 0), align 4
  %or1394 = or i32 %512, 17903
  %call1395 = call zeroext i16 @_ZL29safe_rshift_func_uint16_t_u_utj(i16 zeroext %inc1393, i32 %or1394)
  %conv1396 = zext i16 %call1395 to i32
  %513 = load i32* @_ZL5g_615, align 4
  %conv1397 = trunc i32 %513 to i16
  %514 = load i16* %l_1126, align 2
  %call1398 = call zeroext i16 @_ZL26safe_add_func_uint16_t_u_utt(i16 zeroext 0, i16 zeroext %514)
  %conv1399 = zext i16 %call1398 to i32
  %515 = load i32* getelementptr inbounds ([1 x [6 x i32]]* @_ZL5g_860, i32 0, i64 0, i64 4), align 4
  %cmp1400 = icmp uge i32 %conv1399, %515
  %conv1401 = zext i1 %cmp1400 to i16
  %516 = load i16* @_ZL6g_1066, align 2
  %call1402 = call zeroext i16 @_ZL26safe_div_func_uint16_t_u_utt(i16 zeroext %conv1401, i16 zeroext %516)
  %tobool1403 = icmp ne i16 %call1402, 0
  br i1 %tobool1403, label %lor.end1406, label %lor.rhs1404

lor.rhs1404:                                      ; preds = %if.end1386
  %517 = load i32* @_ZL5g_930, align 4
  %tobool1405 = icmp ne i32 %517, 0
  br label %lor.end1406

lor.end1406:                                      ; preds = %lor.rhs1404, %if.end1386
  %518 = phi i1 [ true, %if.end1386 ], [ %tobool1405, %lor.rhs1404 ]
  %conv1407 = zext i1 %518 to i16
  %519 = load i32* getelementptr inbounds ([10 x [5 x i32]]* @_ZL4g_49, i32 0, i64 6, i64 1), align 4
  %conv1408 = trunc i32 %519 to i16
  %call1409 = call signext i16 @_ZL25safe_div_func_int16_t_s_sss(i16 signext %conv1407, i16 signext %conv1408)
  %call1410 = call signext i16 @_ZL25safe_mod_func_int16_t_s_sss(i16 signext %call1409, i16 signext -1)
  %call1411 = call zeroext i16 @_ZL26safe_mod_func_uint16_t_u_utt(i16 zeroext %conv1397, i16 zeroext %call1410)
  %call1412 = call signext i16 @_ZL25safe_mod_func_int16_t_s_sss(i16 signext 1, i16 signext %call1411)
  %520 = load i32* @_ZL5g_398, align 4
  %conv1413 = trunc i32 %520 to i16
  %call1414 = call zeroext i16 @_ZL26safe_sub_func_uint16_t_u_utt(i16 zeroext %call1412, i16 zeroext %conv1413)
  %conv1415 = zext i16 %call1414 to i32
  store i32 %conv1415, i32* %l_861, align 4
  %cmp1416 = icmp ult i32 %conv1415, -1501214735
  %conv1417 = zext i1 %cmp1416 to i32
  %cmp1418 = icmp sge i32 1672807604, %conv1417
  %conv1419 = zext i1 %cmp1418 to i32
  %and1420 = and i32 %conv1396, %conv1419
  %conv1421 = trunc i32 %and1420 to i16
  %521 = load i32* @_ZL4g_55, align 4
  %conv1422 = trunc i32 %521 to i16
  %call1423 = call zeroext i16 @_ZL26safe_sub_func_uint16_t_u_utt(i16 zeroext %conv1421, i16 zeroext %conv1422)
  %conv1424 = zext i16 %call1423 to i32
  %522 = load i32* @_ZL6g_1021, align 4
  %cmp1425 = icmp eq i32 %conv1424, %522
  %conv1426 = zext i1 %cmp1425 to i32
  %cmp1427 = icmp ne i32 %conv1426, -7
  %conv1428 = zext i1 %cmp1427 to i16
  %call1429 = call zeroext i16 @_ZL26safe_add_func_uint16_t_u_utt(i16 zeroext %conv1428, i16 zeroext 24374)
  %tobool1430 = icmp ne i16 %call1429, 0
  br i1 %tobool1430, label %land.rhs1431, label %land.end1432

land.rhs1431:                                     ; preds = %lor.end1406
  br label %land.end1432

land.end1432:                                     ; preds = %land.rhs1431, %lor.end1406
  %523 = phi i1 [ false, %lor.end1406 ], [ true, %land.rhs1431 ]
  %conv1433 = zext i1 %523 to i32
  %cmp1434 = icmp ugt i32 %conv1392, %conv1433
  %conv1435 = zext i1 %cmp1434 to i16
  %call1436 = call zeroext i16 @_ZL26safe_add_func_uint16_t_u_utt(i16 zeroext %conv1435, i16 zeroext 19683)
  %conv1437 = zext i16 %call1436 to i32
  store i32 %conv1437, i32* getelementptr inbounds ([10 x [5 x i32]]* @_ZL4g_49, i32 0, i64 0, i64 2), align 4
  store i16 0, i16* %l_1030, align 2
  br label %for.cond1438

for.cond1438:                                     ; preds = %for.inc1503, %land.end1432
  %524 = load i16* %l_1030, align 2
  %conv1439 = sext i16 %524 to i32
  %cmp1440 = icmp sge i32 %conv1439, 0
  br i1 %cmp1440, label %for.body1441, label %for.end1507

for.body1441:                                     ; preds = %for.cond1438
  store i32 1325866351, i32* %l_1156, align 4
  %525 = bitcast [8 x i32]* %l_1165 to i8*
  call void @llvm.memcpy.p0i8.p0i8.i64(i8* %525, i8* bitcast ([8 x i32]* @_ZZL6func_1vE6l_1165 to i8*), i64 32, i32 16, i1 false)
  store i32 6, i32* %l_1167, align 4
  %526 = load i16* @_ZL4g_60, align 2
  %idxprom1445 = zext i16 %526 to i64
  %527 = load i16* @_ZL4g_60, align 2
  %idxprom1446 = zext i16 %527 to i64
  %528 = load i16* @_ZL4g_60, align 2
  %conv1447 = zext i16 %528 to i32
  %add1448 = add nsw i32 %conv1447, 4
  %idxprom1449 = sext i32 %add1448 to i64
  %arrayidx1450 = getelementptr inbounds [5 x [1 x [2 x i32]]]* @_ZL5g_577, i32 0, i64 %idxprom1449
  %arrayidx1451 = getelementptr inbounds [1 x [2 x i32]]* %arrayidx1450, i32 0, i64 %idxprom1446
  %arrayidx1452 = getelementptr inbounds [2 x i32]* %arrayidx1451, i32 0, i64 %idxprom1445
  %529 = load volatile i32* %arrayidx1452, align 4
  store i32 %529, i32* %l_1156, align 4
  %arrayidx1453 = getelementptr inbounds [4 x i32]* %l_1038, i32 0, i64 3
  %530 = load i32* %arrayidx1453, align 4
  %tobool1454 = icmp ne i32 %530, 0
  br i1 %tobool1454, label %lor.end1484, label %lor.rhs1455

lor.rhs1455:                                      ; preds = %for.body1441
  %531 = load i32* @_ZL5g_396, align 4
  %conv1456 = trunc i32 %531 to i16
  %532 = load i32* getelementptr inbounds ([10 x [5 x i32]]* @_ZL4g_49, i32 0, i64 9, i64 1), align 4
  %arrayidx1457 = getelementptr inbounds [8 x i32]* %l_1165, i32 0, i64 2
  %533 = load i32* %arrayidx1457, align 4
  %534 = load i32* @_ZL5g_166, align 4
  %cmp1458 = icmp slt i32 %533, %534
  %conv1459 = zext i1 %cmp1458 to i32
  store i32 %conv1459, i32* %l_730, align 4
  %xor1460 = xor i32 8, %conv1459
  %535 = load i32* @_ZL4g_48, align 4
  %536 = load i32* @_ZL5g_489, align 4
  %and1461 = and i32 %535, %536
  %cmp1462 = icmp sle i32 %xor1460, %and1461
  %conv1463 = zext i1 %cmp1462 to i32
  %537 = load i16* @_ZL6g_1066, align 2
  %conv1464 = zext i16 %537 to i32
  %cmp1465 = icmp ne i32 %conv1463, %conv1464
  %conv1466 = zext i1 %cmp1465 to i32
  %arrayidx1467 = getelementptr inbounds [8 x i32]* %l_1165, i32 0, i64 2
  %538 = load i32* %arrayidx1467, align 4
  %cmp1468 = icmp sgt i32 %conv1466, %538
  %conv1469 = zext i1 %cmp1468 to i16
  %539 = load i32* %l_861, align 4
  %conv1470 = trunc i32 %539 to i16
  %call1471 = call signext i16 @_ZL25safe_sub_func_int16_t_s_sss(i16 signext %conv1469, i16 signext %conv1470)
  %conv1472 = sext i16 %call1471 to i32
  %call1473 = call i32 @_ZL26safe_mod_func_uint32_t_u_ujj(i32 -1, i32 %conv1472)
  store i32 %call1473, i32* @_ZL6g_1021, align 4
  %cmp1474 = icmp ne i32 %532, %call1473
  %conv1475 = zext i1 %cmp1474 to i32
  %540 = load i16* @_ZL4g_56, align 2
  %conv1476 = sext i16 %540 to i32
  %cmp1477 = icmp ne i32 %conv1475, %conv1476
  %conv1478 = zext i1 %cmp1477 to i16
  store i16 %conv1478, i16* @_ZL5g_394, align 2
  %arrayidx1479 = getelementptr inbounds [8 x i32]* %l_1165, i32 0, i64 2
  %541 = load i32* %arrayidx1479, align 4
  %conv1480 = trunc i32 %541 to i16
  %call1481 = call zeroext i16 @_ZL26safe_mul_func_uint16_t_u_utt(i16 zeroext %conv1478, i16 zeroext %conv1480)
  %call1482 = call signext i16 @_ZL25safe_mul_func_int16_t_s_sss(i16 signext %conv1456, i16 signext %call1481)
  %tobool1483 = icmp ne i16 %call1482, 0
  br label %lor.end1484

lor.end1484:                                      ; preds = %lor.rhs1455, %for.body1441
  %542 = phi i1 [ true, %for.body1441 ], [ %tobool1483, %lor.rhs1455 ]
  %conv1485 = zext i1 %542 to i32
  %543 = load i32* %l_1166, align 4
  %or1486 = or i32 %543, %conv1485
  store i32 %or1486, i32* %l_1166, align 4
  %cmp1487 = icmp eq i32 %529, %or1486
  %conv1488 = zext i1 %cmp1487 to i32
  %544 = load i32* %l_826, align 4
  %cmp1489 = icmp ne i32 %conv1488, %544
  %conv1490 = zext i1 %cmp1489 to i32
  store i32 %conv1490, i32* getelementptr inbounds ([10 x [5 x i32]]* @_ZL4g_49, i32 0, i64 1, i64 2), align 4
  %545 = load i32* %l_1167, align 4
  %inc1491 = add i32 %545, 1
  store i32 %inc1491, i32* %l_1167, align 4
  %546 = load i32* %l_1197, align 4
  %xor1492 = xor i32 1, %546
  %tobool1493 = icmp ne i32 %xor1492, 0
  br i1 %tobool1493, label %lor.end1496, label %lor.rhs1494

lor.rhs1494:                                      ; preds = %lor.end1484
  %547 = load i32* %l_1196, align 4
  %tobool1495 = icmp ne i32 %547, 0
  br label %lor.end1496

lor.end1496:                                      ; preds = %lor.rhs1494, %lor.end1484
  %548 = phi i1 [ true, %lor.end1484 ], [ %tobool1495, %lor.rhs1494 ]
  %conv1497 = zext i1 %548 to i16
  %call1498 = call zeroext i16 @_ZL32safe_unary_minus_func_uint16_t_ut(i16 zeroext %conv1497)
  %conv1499 = zext i16 %call1498 to i32
  store i32 %conv1499, i32* getelementptr inbounds ([10 x [5 x i32]]* @_ZL4g_49, i32 0, i64 3, i64 4), align 4
  %549 = load volatile i32* @_ZL6g_1020, align 4
  %tobool1500 = icmp ne i32 %549, 0
  br i1 %tobool1500, label %if.then1501, label %if.end1502

if.then1501:                                      ; preds = %lor.end1496
  br label %for.end1507

if.end1502:                                       ; preds = %lor.end1496
  br label %for.inc1503

for.inc1503:                                      ; preds = %if.end1502
  %550 = load i16* %l_1030, align 2
  %conv1504 = sext i16 %550 to i32
  %sub1505 = sub nsw i32 %conv1504, 1
  %conv1506 = trunc i32 %sub1505 to i16
  store i16 %conv1506, i16* %l_1030, align 2
  br label %for.cond1438

for.end1507:                                      ; preds = %if.then1501, %for.cond1438
  br label %if.end1645

if.else1508:                                      ; preds = %lor.end1078
  store i32 -1394963803, i32* %l_1200, align 4
  store i32 -1008108614, i32* %l_1248, align 4
  %551 = load i32* %l_1200, align 4
  %552 = load i32* @_ZL5g_489, align 4
  %553 = load i16* @_ZL4g_60, align 2
  %554 = load i32* %l_826, align 4
  %tobool1509 = icmp ne i32 %554, 0
  br i1 %tobool1509, label %land.rhs1510, label %land.end1530

land.rhs1510:                                     ; preds = %if.else1508
  %555 = load i32* %l_1125, align 4
  %556 = load i32* %l_1200, align 4
  %557 = load i32* getelementptr inbounds ([10 x [5 x i32]]* @_ZL4g_49, i32 0, i64 8, i64 2), align 4
  %call1511 = call i32 @_ZL26safe_mod_func_uint32_t_u_ujj(i32 1, i32 %557)
  %conv1512 = trunc i32 %call1511 to i16
  %558 = load i32* %l_1200, align 4
  %conv1513 = trunc i32 %558 to i16
  %call1514 = call signext i16 @_ZL25safe_sub_func_int16_t_s_sss(i16 signext %conv1512, i16 signext %conv1513)
  %conv1515 = sext i16 %call1514 to i32
  %559 = load i32* getelementptr inbounds ([10 x [5 x i32]]* @_ZL4g_49, i32 0, i64 8, i64 2), align 4
  %xor1516 = xor i32 %conv1515, %559
  %560 = load i32* @_ZL5g_796, align 4
  %cmp1517 = icmp eq i32 %xor1516, %560
  %conv1518 = zext i1 %cmp1517 to i16
  %561 = load i16* %l_1193, align 2
  %call1519 = call signext i16 @_ZL25safe_mul_func_int16_t_s_sss(i16 signext %conv1518, i16 signext %561)
  %conv1520 = sext i16 %call1519 to i32
  %arrayidx1521 = getelementptr inbounds [3 x i16]* %l_904, i32 0, i64 2
  %562 = load i16* %arrayidx1521, align 2
  %conv1522 = zext i16 %562 to i32
  %call1523 = call i32 @_ZL26safe_mod_func_uint32_t_u_ujj(i32 %conv1520, i32 %conv1522)
  %and1524 = and i32 %call1523, 65535
  %cmp1525 = icmp uge i32 %556, %and1524
  %conv1526 = zext i1 %cmp1525 to i32
  %cmp1527 = icmp slt i32 -1, %conv1526
  %conv1528 = zext i1 %cmp1527 to i32
  %cmp1529 = icmp sgt i32 %555, %conv1528
  br label %land.end1530

land.end1530:                                     ; preds = %land.rhs1510, %if.else1508
  %563 = phi i1 [ false, %if.else1508 ], [ %cmp1529, %land.rhs1510 ]
  %conv1531 = zext i1 %563 to i32
  %564 = load i32* getelementptr inbounds ([10 x [5 x i32]]* @_ZL4g_49, i32 0, i64 9, i64 3), align 4
  %call1532 = call i32 @_ZL25safe_add_func_int32_t_s_sii(i32 %conv1531, i32 %564)
  %565 = load i32* getelementptr inbounds ([10 x [5 x i32]]* @_ZL4g_49, i32 0, i64 6, i64 1), align 4
  %or1533 = or i32 %call1532, %565
  %566 = load volatile i32* getelementptr inbounds ([5 x [1 x [2 x i32]]]* @_ZL5g_577, i32 0, i64 0, i64 0, i64 1), align 4
  %cmp1534 = icmp eq i32 %or1533, %566
  %conv1535 = zext i1 %cmp1534 to i16
  %call1536 = call signext i16 @_ZL25safe_sub_func_int16_t_s_sss(i16 signext %553, i16 signext %conv1535)
  %conv1537 = sext i16 %call1536 to i32
  %cmp1538 = icmp eq i32 %552, %conv1537
  %conv1539 = zext i1 %cmp1538 to i32
  %call1540 = call i32 @_ZL26safe_sub_func_uint32_t_u_ujj(i32 %551, i32 %conv1539)
  %tobool1541 = icmp ne i32 %call1540, 0
  br i1 %tobool1541, label %if.then1542, label %if.else1546

if.then1542:                                      ; preds = %land.end1530
  %567 = load i16* %l_1124, align 2
  %tobool1543 = icmp ne i16 %567, 0
  br i1 %tobool1543, label %if.then1544, label %if.end1545

if.then1544:                                      ; preds = %if.then1542
  br label %for.end1651

if.end1545:                                       ; preds = %if.then1542
  br label %if.end1549

if.else1546:                                      ; preds = %land.end1530
  store i32 -664664634, i32* %l_1223, align 4
  %568 = load i32* %l_1223, align 4
  %inc1547 = add i32 %568, 1
  store i32 %inc1547, i32* %l_1223, align 4
  %569 = load i16* @_ZL4g_60, align 2
  %conv1548 = zext i16 %569 to i32
  store i32 %conv1548, i32* %retval
  br label %return

if.end1549:                                       ; preds = %if.end1545
  store i32 -19, i32* @_ZL5g_396, align 4
  br label %for.cond1550

for.cond1550:                                     ; preds = %for.inc1642, %if.end1549
  %570 = load i32* @_ZL5g_396, align 4
  %cmp1551 = icmp ne i32 %570, 8
  br i1 %cmp1551, label %for.body1552, label %for.end1644

for.body1552:                                     ; preds = %for.cond1550
  store i16 1487, i16* %l_1245, align 2
  %571 = load volatile i32* getelementptr inbounds ([5 x [1 x [2 x i32]]]* @_ZL5g_577, i32 0, i64 0, i64 0, i64 1), align 4
  %tobool1553 = icmp ne i32 %571, 0
  br i1 %tobool1553, label %if.then1554, label %if.end1555

if.then1554:                                      ; preds = %for.body1552
  br label %for.end1644

if.end1555:                                       ; preds = %for.body1552
  %572 = load i32* @_ZL6g_1021, align 4
  store i32 %572, i32* %l_1125, align 4
  store i32 %572, i32* getelementptr inbounds ([10 x [5 x i32]]* @_ZL4g_49, i32 0, i64 9, i64 3), align 4
  store i32 %572, i32* @_ZL5g_859, align 4
  %573 = load i32* %l_1200, align 4
  store i32 %573, i32* %l_1200, align 4
  %tobool1556 = icmp ne i32 %573, 0
  br i1 %tobool1556, label %land.rhs1557, label %land.end1606

land.rhs1557:                                     ; preds = %if.end1555
  %call1558 = call signext i16 @_ZL28safe_rshift_func_int16_t_s_ssi(i16 signext 24521, i32 1)
  %conv1559 = sext i16 %call1558 to i32
  %or1560 = or i32 255922099, %conv1559
  %arrayidx1561 = getelementptr inbounds [3 x i16]* %l_904, i32 0, i64 2
  %574 = load i16* %arrayidx1561, align 2
  %conv1562 = zext i16 %574 to i32
  %and1563 = and i32 %or1560, %conv1562
  %575 = load i16* %l_1245, align 2
  %conv1564 = sext i16 %575 to i32
  store i32 0, i32* %l_1200, align 4
  %cmp1565 = icmp sge i32 %conv1564, 0
  br i1 %cmp1565, label %land.lhs.true1566, label %lor.rhs1568

land.lhs.true1566:                                ; preds = %land.rhs1557
  %576 = load i32* %l_861, align 4
  %tobool1567 = icmp ne i32 %576, 0
  br i1 %tobool1567, label %lor.end1590, label %lor.rhs1568

lor.rhs1568:                                      ; preds = %land.lhs.true1566, %land.rhs1557
  %577 = load i32* %l_1190, align 4
  store i32 %577, i32* getelementptr inbounds ([1 x [6 x i32]]* @_ZL5g_860, i32 0, i64 0, i64 4), align 4
  %tobool1569 = icmp ne i32 %577, 0
  br i1 %tobool1569, label %land.lhs.true1570, label %lor.lhs.false1572

land.lhs.true1570:                                ; preds = %lor.rhs1568
  %578 = load i32* %l_1248, align 4
  %tobool1571 = icmp ne i32 %578, 0
  br i1 %tobool1571, label %land.rhs1573, label %lor.lhs.false1572

lor.lhs.false1572:                                ; preds = %land.lhs.true1570, %lor.rhs1568
  br i1 true, label %land.rhs1573, label %land.end1576

land.rhs1573:                                     ; preds = %lor.lhs.false1572, %land.lhs.true1570
  %arrayidx1574 = getelementptr inbounds [3 x i16]* %l_904, i32 0, i64 1
  %579 = load i16* %arrayidx1574, align 2
  %tobool1575 = icmp ne i16 %579, 0
  br label %land.end1576

land.end1576:                                     ; preds = %land.rhs1573, %lor.lhs.false1572
  %580 = phi i1 [ false, %lor.lhs.false1572 ], [ %tobool1575, %land.rhs1573 ]
  %conv1577 = zext i1 %580 to i32
  %cmp1578 = icmp eq i32 %conv1577, -1552704178
  %conv1579 = zext i1 %cmp1578 to i32
  %cmp1580 = icmp sge i32 %conv1579, 21853
  %conv1581 = zext i1 %cmp1580 to i16
  %call1582 = call signext i16 @_ZL25safe_mod_func_int16_t_s_sss(i16 signext %conv1581, i16 signext 2)
  %conv1583 = sext i16 %call1582 to i32
  %581 = load i32* @_ZL5g_489, align 4
  %and1584 = and i32 %conv1583, %581
  %582 = load i16* @_ZL4g_60, align 2
  %conv1585 = zext i16 %582 to i32
  %cmp1586 = icmp sgt i32 %and1584, %conv1585
  %conv1587 = zext i1 %cmp1586 to i32
  %583 = load i32* %l_1196, align 4
  %and1588 = and i32 %conv1587, %583
  %tobool1589 = icmp ne i32 %and1588, 0
  br label %lor.end1590

lor.end1590:                                      ; preds = %land.end1576, %land.lhs.true1566
  %584 = phi i1 [ true, %land.lhs.true1566 ], [ %tobool1589, %land.end1576 ]
  %conv1591 = zext i1 %584 to i32
  %585 = load i16* %l_662, align 2
  %conv1592 = sext i16 %585 to i32
  %and1593 = and i32 %conv1591, %conv1592
  %586 = load i32* %l_1099, align 4
  %call1594 = call i32 @_ZL26safe_mod_func_uint32_t_u_ujj(i32 %and1593, i32 %586)
  %tobool1595 = icmp ne i32 %call1594, 0
  br i1 %tobool1595, label %land.rhs1596, label %land.end1598

land.rhs1596:                                     ; preds = %lor.end1590
  %587 = load i32* %l_1099, align 4
  %tobool1597 = icmp ne i32 %587, 0
  br label %land.end1598

land.end1598:                                     ; preds = %land.rhs1596, %lor.end1590
  %588 = phi i1 [ false, %lor.end1590 ], [ %tobool1597, %land.rhs1596 ]
  %conv1599 = zext i1 %588 to i32
  %call1600 = call i32 @_ZL26safe_sub_func_uint32_t_u_ujj(i32 %and1563, i32 %conv1599)
  %589 = load i32* %l_660, align 4
  %cmp1601 = icmp ule i32 %call1600, %589
  %conv1602 = zext i1 %cmp1601 to i16
  %590 = load i32* @_ZL4g_55, align 4
  %conv1603 = trunc i32 %590 to i16
  %call1604 = call signext i16 @_ZL25safe_mul_func_int16_t_s_sss(i16 signext %conv1602, i16 signext %conv1603)
  %tobool1605 = icmp ne i16 %call1604, 0
  br label %land.end1606

land.end1606:                                     ; preds = %land.end1598, %if.end1555
  %591 = phi i1 [ false, %if.end1555 ], [ %tobool1605, %land.end1598 ]
  %conv1607 = zext i1 %591 to i32
  %592 = load i16* @_ZL4g_56, align 2
  %conv1608 = sext i16 %592 to i32
  %cmp1609 = icmp eq i32 %conv1607, %conv1608
  %conv1610 = zext i1 %cmp1609 to i32
  %593 = load i32* @_ZL5g_615, align 4
  %call1611 = call i32 @_ZL26safe_div_func_uint32_t_u_ujj(i32 %conv1610, i32 %593)
  %cmp1612 = icmp ule i32 %call1611, 2
  br i1 %cmp1612, label %land.rhs1613, label %land.end1615

land.rhs1613:                                     ; preds = %land.end1606
  %594 = load i16* %l_1193, align 2
  %tobool1614 = icmp ne i16 %594, 0
  br label %land.end1615

land.end1615:                                     ; preds = %land.rhs1613, %land.end1606
  %595 = phi i1 [ false, %land.end1606 ], [ %tobool1614, %land.rhs1613 ]
  %conv1616 = zext i1 %595 to i16
  %596 = load i32* @_ZL3g_2, align 4
  %conv1617 = trunc i32 %596 to i16
  %call1618 = call signext i16 @_ZL25safe_mul_func_int16_t_s_sss(i16 signext %conv1616, i16 signext %conv1617)
  %conv1619 = sext i16 %call1618 to i32
  store i32 %conv1619, i32* @_ZL5g_622, align 4
  %597 = load i16* @_ZL4g_60, align 2
  %conv1620 = zext i16 %597 to i32
  %cmp1621 = icmp ult i32 %conv1619, %conv1620
  %lnot1622 = xor i1 %cmp1621, true
  %conv1623 = zext i1 %lnot1622 to i32
  %cmp1624 = icmp sge i32 %572, %conv1623
  %conv1625 = zext i1 %cmp1624 to i32
  %cmp1626 = icmp ult i32 %conv1625, -351615692
  %conv1627 = zext i1 %cmp1626 to i32
  %and1628 = and i32 %conv1627, 4
  %598 = load i32* %l_1099, align 4
  %cmp1629 = icmp ule i32 %and1628, %598
  %conv1630 = zext i1 %cmp1629 to i16
  %call1631 = call signext i16 @_ZL25safe_mul_func_int16_t_s_sss(i16 signext %conv1630, i16 signext 0)
  %conv1632 = sext i16 %call1631 to i32
  %599 = load i32* @_ZL4g_36, align 4
  %call1633 = call i32 @_ZL26safe_mod_func_uint32_t_u_ujj(i32 %conv1632, i32 %599)
  %600 = load i32* @_ZL5g_166, align 4
  %cmp1634 = icmp ule i32 %call1633, %600
  %conv1635 = zext i1 %cmp1634 to i32
  store i32 %conv1635, i32* %l_1197, align 4
  %cmp1636 = icmp sle i32 %conv1635, 9791
  %conv1637 = zext i1 %cmp1636 to i32
  %601 = load i32* @_ZL4g_48, align 4
  %xor1638 = xor i32 %601, %conv1637
  store i32 %xor1638, i32* @_ZL4g_48, align 4
  %602 = load i16* @_ZL6g_1066, align 2
  %tobool1639 = icmp ne i16 %602, 0
  br i1 %tobool1639, label %if.then1640, label %if.end1641

if.then1640:                                      ; preds = %land.end1615
  br label %for.end1644

if.end1641:                                       ; preds = %land.end1615
  br label %for.inc1642

for.inc1642:                                      ; preds = %if.end1641
  %603 = load i32* @_ZL5g_396, align 4
  %inc1643 = add i32 %603, 1
  store i32 %inc1643, i32* @_ZL5g_396, align 4
  br label %for.cond1550

for.end1644:                                      ; preds = %if.then1640, %if.then1554, %for.cond1550
  br label %if.end1645

if.end1645:                                       ; preds = %for.end1644, %for.end1507
  %604 = load i32* %l_1258, align 4
  %inc1646 = add i32 %604, 1
  store i32 %inc1646, i32* %l_1258, align 4
  br label %for.inc1647

for.inc1647:                                      ; preds = %if.end1645
  %605 = load i16* @_ZL4g_60, align 2
  %conv1648 = zext i16 %605 to i32
  %add1649 = add nsw i32 %conv1648, 1
  %conv1650 = trunc i32 %add1649 to i16
  store i16 %conv1650, i16* @_ZL4g_60, align 2
  br label %for.cond997

for.end1651:                                      ; preds = %if.then1544, %if.then1140, %for.cond997
  br label %for.inc1652

for.inc1652:                                      ; preds = %for.end1651
  %606 = load i32* %l_676, align 4
  %add1653 = add nsw i32 %606, 1
  store i32 %add1653, i32* %l_676, align 4
  br label %for.cond212

for.end1654:                                      ; preds = %if.then822, %if.then718, %for.cond212
  store i32 0, i32* %l_1197, align 4
  br label %for.cond1655

for.cond1655:                                     ; preds = %for.inc2641, %for.end1654
  %607 = load i32* %l_1197, align 4
  %cmp1656 = icmp slt i32 %607, -17
  br i1 %cmp1656, label %for.body1657, label %for.end2645

for.body1657:                                     ; preds = %for.cond1655
  store i32 -486011207, i32* %l_1263, align 4
  store i32 1020840692, i32* %l_1293, align 4
  %608 = bitcast [5 x [2 x [1 x i32]]]* %l_1336 to i8*
  call void @llvm.memset.p0i8.i64(i8* %608, i8 0, i64 40, i32 16, i1 false)
  %609 = bitcast i8* %608 to [5 x [2 x [1 x i32]]]*
  %610 = getelementptr [5 x [2 x [1 x i32]]]* %609, i32 0, i32 0
  %611 = getelementptr [2 x [1 x i32]]* %610, i32 0, i32 0
  %612 = getelementptr [1 x i32]* %611, i32 0, i32 0
  store i32 786100165, i32* %612
  %613 = getelementptr [5 x [2 x [1 x i32]]]* %609, i32 0, i32 1
  %614 = getelementptr [2 x [1 x i32]]* %613, i32 0, i32 0
  %615 = getelementptr [1 x i32]* %614, i32 0, i32 0
  store i32 786100165, i32* %615
  %616 = getelementptr [5 x [2 x [1 x i32]]]* %609, i32 0, i32 2
  %617 = getelementptr [2 x [1 x i32]]* %616, i32 0, i32 0
  %618 = getelementptr [1 x i32]* %617, i32 0, i32 0
  store i32 786100165, i32* %618
  %619 = getelementptr [5 x [2 x [1 x i32]]]* %609, i32 0, i32 3
  %620 = getelementptr [2 x [1 x i32]]* %619, i32 0, i32 0
  %621 = getelementptr [1 x i32]* %620, i32 0, i32 0
  store i32 786100165, i32* %621
  %622 = getelementptr [5 x [2 x [1 x i32]]]* %609, i32 0, i32 4
  %623 = getelementptr [2 x [1 x i32]]* %622, i32 0, i32 0
  %624 = getelementptr [1 x i32]* %623, i32 0, i32 0
  store i32 786100165, i32* %624
  store i16 19591, i16* %l_1561, align 2
  %625 = load i32* %l_1263, align 4
  %626 = load i32* %l_704, align 4
  store i32 %626, i32* %l_1266, align 4
  %arrayidx1661 = getelementptr inbounds [4 x i16]* %l_858, i32 0, i64 3
  %627 = load i16* %arrayidx1661, align 2
  %tobool1662 = icmp ne i16 %627, 0
  br i1 %tobool1662, label %lor.end1667, label %lor.rhs1663

lor.rhs1663:                                      ; preds = %for.body1657
  %628 = load volatile i16* @_ZL5g_277, align 2
  %conv1664 = zext i16 %628 to i32
  %629 = load i32* @_ZL5g_166, align 4
  %and1665 = and i32 %conv1664, %629
  %tobool1666 = icmp ne i32 %and1665, 0
  br label %lor.end1667

lor.end1667:                                      ; preds = %lor.rhs1663, %for.body1657
  %630 = phi i1 [ true, %for.body1657 ], [ %tobool1666, %lor.rhs1663 ]
  %conv1668 = zext i1 %630 to i16
  %631 = load i32* %l_660, align 4
  store i32 %631, i32* %l_730, align 4
  %632 = load i32* @_ZL6g_1021, align 4
  %call1669 = call i32 @_ZL26safe_mod_func_uint32_t_u_ujj(i32 1, i32 %632)
  %cmp1670 = icmp ne i32 %631, %call1669
  %conv1671 = zext i1 %cmp1670 to i32
  %633 = load i32* %l_660, align 4
  %cmp1672 = icmp slt i32 %conv1671, %633
  %conv1673 = zext i1 %cmp1672 to i32
  %634 = load i32* %l_1190, align 4
  %and1674 = and i32 %conv1673, %634
  %conv1675 = trunc i32 %and1674 to i16
  %call1676 = call signext i16 @_ZL25safe_mul_func_int16_t_s_sss(i16 signext %conv1668, i16 signext %conv1675)
  %conv1677 = sext i16 %call1676 to i32
  %call1678 = call i32 @_ZL25safe_mod_func_int32_t_s_sii(i32 %626, i32 %conv1677)
  %635 = load i32* @_ZL4g_33, align 4
  %cmp1679 = icmp ule i32 %call1678, %635
  %conv1680 = zext i1 %cmp1679 to i32
  %cmp1681 = icmp ugt i32 %625, %conv1680
  br i1 %cmp1681, label %if.then1684, label %lor.lhs.false1682

lor.lhs.false1682:                                ; preds = %lor.end1667
  %636 = load i32* %l_704, align 4
  %tobool1683 = icmp ne i32 %636, 0
  br i1 %tobool1683, label %if.then1684, label %if.else1734

if.then1684:                                      ; preds = %lor.lhs.false1682, %lor.end1667
  store i32 0, i32* %l_1292, align 4
  %637 = load i32* @_ZL5g_396, align 4
  %tobool1685 = icmp ne i32 %637, 0
  br i1 %tobool1685, label %lor.end1731, label %lor.rhs1686

lor.rhs1686:                                      ; preds = %if.then1684
  %arrayidx1687 = getelementptr inbounds [4 x i16]* %l_858, i32 0, i64 1
  %638 = load i16* %arrayidx1687, align 2
  %639 = load i32* @_ZL5g_622, align 4
  %conv1688 = trunc i32 %639 to i16
  %call1689 = call signext i16 @_ZL25safe_mod_func_int16_t_s_sss(i16 signext %638, i16 signext %conv1688)
  %conv1690 = sext i16 %call1689 to i32
  %640 = load volatile i32* @_ZL5g_778, align 4
  %641 = load i32* @_ZL6g_1021, align 4
  %642 = load i32* @_ZL5g_166, align 4
  %cmp1691 = icmp ugt i32 %641, %642
  %conv1692 = zext i1 %cmp1691 to i32
  %cmp1693 = icmp ult i32 -1735947495, %conv1692
  br i1 %cmp1693, label %lor.end1712, label %lor.rhs1694

lor.rhs1694:                                      ; preds = %lor.rhs1686
  %643 = load i32* @_ZL4g_36, align 4
  %conv1695 = trunc i32 %643 to i16
  %call1696 = call signext i16 @_ZL31safe_unary_minus_func_int16_t_ss(i16 signext %conv1695)
  %conv1697 = sext i16 %call1696 to i32
  %arrayidx1698 = getelementptr inbounds [5 x [5 x [6 x i32]]]* %l_4, i32 0, i64 3
  %arrayidx1699 = getelementptr inbounds [5 x [6 x i32]]* %arrayidx1698, i32 0, i64 4
  %arrayidx1700 = getelementptr inbounds [6 x i32]* %arrayidx1699, i32 0, i64 5
  %644 = load i32* %arrayidx1700, align 4
  %or1701 = or i32 %conv1697, %644
  %645 = load i32* %l_1292, align 4
  %call1702 = call i32 @_ZL25safe_sub_func_int32_t_s_sii(i32 %or1701, i32 %645)
  %646 = load i32* %l_1292, align 4
  %cmp1703 = icmp sle i32 %call1702, %646
  %conv1704 = zext i1 %cmp1703 to i32
  %647 = load i32* %l_1292, align 4
  %cmp1705 = icmp ne i32 %conv1704, %647
  %conv1706 = zext i1 %cmp1705 to i32
  store i32 %conv1706, i32* @_ZL4g_48, align 4
  %call1707 = call i32 @_ZL25safe_div_func_int32_t_s_sii(i32 %conv1706, i32 -1)
  %648 = load i32* %l_1263, align 4
  %cmp1708 = icmp ne i32 %call1707, %648
  %conv1709 = zext i1 %cmp1708 to i32
  %call1710 = call i32 @_ZL26safe_sub_func_uint32_t_u_ujj(i32 %conv1709, i32 -9)
  %649 = load i32* getelementptr inbounds ([1 x [6 x i32]]* @_ZL5g_860, i32 0, i64 0, i64 0), align 4
  %cmp1711 = icmp eq i32 %call1710, %649
  br label %lor.end1712

lor.end1712:                                      ; preds = %lor.rhs1694, %lor.rhs1686
  %650 = phi i1 [ true, %lor.rhs1686 ], [ %cmp1711, %lor.rhs1694 ]
  %conv1713 = zext i1 %650 to i32
  %cmp1714 = icmp sle i32 %640, %conv1713
  %conv1715 = zext i1 %cmp1714 to i32
  %cmp1716 = icmp ne i32 1641437655, %conv1715
  %conv1717 = zext i1 %cmp1716 to i32
  %651 = load i32* getelementptr inbounds ([1 x [6 x i32]]* @_ZL5g_860, i32 0, i64 0, i64 5), align 4
  %cmp1718 = icmp ugt i32 %conv1717, %651
  %conv1719 = zext i1 %cmp1718 to i32
  %cmp1720 = icmp ult i32 %conv1719, 1
  %conv1721 = zext i1 %cmp1720 to i16
  %call1722 = call signext i16 @_ZL28safe_lshift_func_int16_t_s_ssi(i16 signext %conv1721, i32 8)
  %conv1723 = sext i16 %call1722 to i32
  %call1724 = call i32 @_ZL25safe_add_func_int32_t_s_sii(i32 %conv1690, i32 %conv1723)
  store i32 %call1724, i32* %l_1293, align 4
  %652 = load i32* %l_1197, align 4
  %call1725 = call i32 @_ZL25safe_sub_func_int32_t_s_sii(i32 %call1724, i32 %652)
  %653 = load i32* @_ZL5g_489, align 4
  %or1726 = or i32 %call1725, %653
  %conv1727 = trunc i32 %or1726 to i16
  store i16 %conv1727, i16* @_ZL4g_46, align 2
  %conv1728 = sext i16 %conv1727 to i32
  %654 = load i16* %l_662, align 2
  %conv1729 = sext i16 %654 to i32
  %cmp1730 = icmp sgt i32 %conv1728, %conv1729
  br label %lor.end1731

lor.end1731:                                      ; preds = %lor.end1712, %if.then1684
  %655 = phi i1 [ true, %if.then1684 ], [ %cmp1730, %lor.end1712 ]
  %conv1732 = zext i1 %655 to i32
  store i32 %conv1732, i32* %l_730, align 4
  %656 = load i16* @_ZL6g_1066, align 2
  %conv1733 = zext i16 %656 to i32
  store i32 %conv1733, i32* %retval
  br label %return

if.else1734:                                      ; preds = %lor.lhs.false1682
  store i16 28533, i16* %l_1294, align 2
  %657 = load i16* %l_1294, align 2
  %conv1735 = sext i16 %657 to i32
  store i32 %conv1735, i32* getelementptr inbounds ([10 x [5 x i32]]* @_ZL4g_49, i32 0, i64 8, i64 2), align 4
  %658 = load i32* @_ZL6g_1295, align 4
  store i32 %658, i32* @_ZL4g_48, align 4
  %659 = load i32* %l_1173, align 4
  %tobool1736 = icmp ne i32 %659, 0
  br i1 %tobool1736, label %if.then1737, label %if.end1738

if.then1737:                                      ; preds = %if.else1734
  br label %lbl_873

if.end1738:                                       ; preds = %if.else1734
  br label %if.end1739

if.end1739:                                       ; preds = %if.end1738
  store i16 -14, i16* %l_679, align 2
  br label %for.cond1740

for.cond1740:                                     ; preds = %for.inc1979, %if.end1739
  %660 = load i16* %l_679, align 2
  %conv1741 = zext i16 %660 to i32
  %cmp1742 = icmp ne i32 %conv1741, 53
  br i1 %cmp1742, label %for.body1743, label %for.end1981

for.body1743:                                     ; preds = %for.cond1740
  store i32 1, i32* %l_1306, align 4
  store i32 2053889505, i32* %l_1309, align 4
  store i32 -1230339688, i32* %l_1310, align 4
  store i16 0, i16* %l_1384, align 2
  store i32 0, i32* %i1744, align 4
  br label %for.cond1745

for.cond1745:                                     ; preds = %for.inc1750, %for.body1743
  %661 = load i32* %i1744, align 4
  %cmp1746 = icmp slt i32 %661, 4
  br i1 %cmp1746, label %for.body1747, label %for.end1752

for.body1747:                                     ; preds = %for.cond1745
  %662 = load i32* %i1744, align 4
  %idxprom1748 = sext i32 %662 to i64
  %arrayidx1749 = getelementptr inbounds [4 x i16]* %l_1352, i32 0, i64 %idxprom1748
  store i16 -6060, i16* %arrayidx1749, align 2
  br label %for.inc1750

for.inc1750:                                      ; preds = %for.body1747
  %663 = load i32* %i1744, align 4
  %inc1751 = add nsw i32 %663, 1
  store i32 %inc1751, i32* %i1744, align 4
  br label %for.cond1745

for.end1752:                                      ; preds = %for.cond1745
  store i32 0, i32* %l_659, align 4
  br label %for.cond1753

for.cond1753:                                     ; preds = %for.inc1880, %for.end1752
  %664 = load i32* %l_659, align 4
  %cmp1754 = icmp slt i32 %664, 3
  br i1 %cmp1754, label %for.body1755, label %for.end1882

for.body1755:                                     ; preds = %for.cond1753
  %665 = bitcast [7 x [6 x [5 x i32]]]* %l_1351 to i8*
  call void @llvm.memcpy.p0i8.p0i8.i64(i8* %665, i8* bitcast ([7 x [6 x [5 x i32]]]* @_ZZL6func_1vE6l_1351 to i8*), i64 840, i32 16, i1 false)
  %666 = load i32* getelementptr inbounds ([10 x [5 x i32]]* @_ZL4g_49, i32 0, i64 7, i64 0), align 4
  %667 = load i32* @_ZL4g_48, align 4
  %xor1759 = xor i32 %667, %666
  store i32 %xor1759, i32* @_ZL4g_48, align 4
  %arrayidx1760 = getelementptr inbounds [2 x [8 x [5 x i32]]]* %l_1301, i32 0, i64 0
  %arrayidx1761 = getelementptr inbounds [8 x [5 x i32]]* %arrayidx1760, i32 0, i64 4
  %arrayidx1762 = getelementptr inbounds [5 x i32]* %arrayidx1761, i32 0, i64 0
  %668 = load i32* %arrayidx1762, align 4
  %inc1763 = add i32 %668, 1
  store i32 %inc1763, i32* %arrayidx1762, align 4
  store i16 -11, i16* @_ZL4g_46, align 2
  br label %for.cond1764

for.cond1764:                                     ; preds = %for.inc1877, %for.body1755
  %669 = load i16* @_ZL4g_46, align 2
  %conv1765 = sext i16 %669 to i32
  %cmp1766 = icmp slt i32 %conv1765, -5
  br i1 %cmp1766, label %for.body1767, label %for.end1879

for.body1767:                                     ; preds = %for.cond1764
  store i32 7, i32* %l_1307, align 4
  %670 = bitcast [4 x i32]* %l_1308 to i8*
  call void @llvm.memset.p0i8.i64(i8* %670, i8 0, i64 16, i32 16, i1 false)
  store i32 -4, i32* %l_1334, align 4
  %671 = load volatile i32* getelementptr inbounds ([5 x [1 x [2 x i32]]]* @_ZL5g_577, i32 0, i64 0, i64 0, i64 1), align 4
  store i32 %671, i32* getelementptr inbounds ([10 x [5 x i32]]* @_ZL4g_49, i32 0, i64 2, i64 1), align 4
  %672 = load i32* getelementptr inbounds ([6 x i32]* @_ZL6g_1311, i32 0, i64 5), align 4
  %dec1769 = add i32 %672, -1
  store i32 %dec1769, i32* getelementptr inbounds ([6 x i32]* @_ZL6g_1311, i32 0, i64 5), align 4
  %673 = load i16* @_ZL4g_60, align 2
  %conv1770 = zext i16 %673 to i32
  %674 = load i32* getelementptr inbounds ([10 x [5 x i32]]* @_ZL4g_49, i32 0, i64 8, i64 2), align 4
  %tobool1771 = icmp ne i32 %674, 0
  br i1 %tobool1771, label %land.rhs1772, label %land.end1809

land.rhs1772:                                     ; preds = %for.body1767
  %call1773 = call signext i16 @_ZL28safe_rshift_func_int16_t_s_usj(i16 signext 0, i32 2)
  %conv1774 = sext i16 %call1773 to i32
  %675 = load i16* @_ZL4g_56, align 2
  %conv1775 = sext i16 %675 to i32
  %or1776 = or i32 %conv1774, %conv1775
  %conv1777 = trunc i32 %or1776 to i16
  %call1778 = call zeroext i16 @_ZL29safe_lshift_func_uint16_t_u_utj(i16 zeroext %conv1777, i32 1)
  %conv1779 = zext i16 %call1778 to i32
  %676 = load i32* getelementptr inbounds ([1 x [6 x i32]]* @_ZL5g_860, i32 0, i64 0, i64 4), align 4
  %conv1780 = trunc i32 %676 to i16
  %677 = load i32* @_ZL5g_396, align 4
  %678 = load i32* %l_1031, align 4
  %679 = load i32* %l_1334, align 4
  %or1781 = or i32 %679, %678
  store i32 %or1781, i32* %l_1334, align 4
  %conv1782 = trunc i32 %or1781 to i16
  %call1783 = call signext i16 @_ZL28safe_lshift_func_int16_t_s_ssi(i16 signext %conv1782, i32 0)
  %conv1784 = sext i16 %call1783 to i32
  %call1785 = call i32 @_ZL25safe_mod_func_int32_t_s_sii(i32 %677, i32 %conv1784)
  %cmp1786 = icmp ugt i32 %call1785, -2
  %conv1787 = zext i1 %cmp1786 to i32
  %call1788 = call zeroext i16 @_ZL29safe_rshift_func_uint16_t_u_sti(i16 zeroext %conv1780, i32 %conv1787)
  %conv1789 = zext i16 %call1788 to i32
  %or1790 = or i32 %conv1779, %conv1789
  %tobool1791 = icmp ne i32 %or1790, 0
  %lnot1792 = xor i1 %tobool1791, true
  %conv1793 = zext i1 %lnot1792 to i16
  %680 = load i32* %l_987, align 4
  %call1794 = call signext i16 @_ZL28safe_rshift_func_int16_t_s_ssi(i16 signext %conv1793, i32 %680)
  %tobool1795 = icmp ne i16 %call1794, 0
  %lnot1796 = xor i1 %tobool1795, true
  %conv1797 = zext i1 %lnot1796 to i32
  %681 = load i32* %l_1293, align 4
  %call1798 = call i32 @_ZL26safe_add_func_uint32_t_u_ujj(i32 %conv1797, i32 %681)
  %tobool1799 = icmp ne i32 %call1798, 0
  br i1 %tobool1799, label %lor.end1802, label %lor.rhs1800

lor.rhs1800:                                      ; preds = %land.rhs1772
  %682 = load i32* %l_1306, align 4
  %tobool1801 = icmp ne i32 %682, 0
  br label %lor.end1802

lor.end1802:                                      ; preds = %lor.rhs1800, %land.rhs1772
  %683 = phi i1 [ true, %land.rhs1772 ], [ %tobool1801, %lor.rhs1800 ]
  %conv1803 = zext i1 %683 to i32
  %arrayidx1804 = getelementptr inbounds [2 x [8 x [5 x i32]]]* %l_1301, i32 0, i64 0
  %arrayidx1805 = getelementptr inbounds [8 x [5 x i32]]* %arrayidx1804, i32 0, i64 7
  %arrayidx1806 = getelementptr inbounds [5 x i32]* %arrayidx1805, i32 0, i64 4
  %684 = load i32* %arrayidx1806, align 4
  %call1807 = call i32 @_ZL25safe_mod_func_int32_t_s_sii(i32 %conv1803, i32 %684)
  %685 = load i32* %l_1307, align 4
  %cmp1808 = icmp sgt i32 %call1807, %685
  br label %land.end1809

land.end1809:                                     ; preds = %lor.end1802, %for.body1767
  %686 = phi i1 [ false, %for.body1767 ], [ %cmp1808, %lor.end1802 ]
  %conv1810 = zext i1 %686 to i32
  %cmp1811 = icmp ne i32 %conv1770, %conv1810
  %conv1812 = zext i1 %cmp1811 to i32
  %687 = load volatile i16* @_ZL5g_277, align 2
  %conv1813 = zext i16 %687 to i32
  %or1814 = or i32 %conv1812, %conv1813
  %call1815 = call signext i16 @_ZL28safe_lshift_func_int16_t_s_usj(i16 signext 3465, i32 %or1814)
  %conv1816 = sext i16 %call1815 to i32
  %arrayidx1817 = getelementptr inbounds [5 x [2 x [1 x i32]]]* %l_1336, i32 0, i64 3
  %arrayidx1818 = getelementptr inbounds [2 x [1 x i32]]* %arrayidx1817, i32 0, i64 1
  %arrayidx1819 = getelementptr inbounds [1 x i32]* %arrayidx1818, i32 0, i64 0
  %688 = load i32* %arrayidx1819, align 4
  %xor1820 = xor i32 %688, %conv1816
  store i32 %xor1820, i32* %arrayidx1819, align 4
  %689 = load i32* %l_730, align 4
  %cmp1821 = icmp slt i32 %xor1820, %689
  %conv1822 = zext i1 %cmp1821 to i32
  %cmp1823 = icmp sgt i32 %conv1822, -5
  %conv1824 = zext i1 %cmp1823 to i32
  store i32 %conv1824, i32* @_ZL5g_859, align 4
  %690 = load i32* getelementptr inbounds ([1 x [6 x i32]]* @_ZL5g_860, i32 0, i64 0, i64 1), align 4
  %conv1825 = trunc i32 %690 to i16
  %691 = load i32* %l_1258, align 4
  %or1826 = or i32 %691, 34363
  %call1827 = call signext i16 @_ZL28safe_rshift_func_int16_t_s_ssi(i16 signext %conv1825, i32 %or1826)
  %692 = load i32* getelementptr inbounds ([6 x i32]* @_ZL6g_1311, i32 0, i64 5), align 4
  %693 = load i16* @_ZL4g_56, align 2
  %conv1828 = sext i16 %693 to i32
  %694 = load i16* %l_1193, align 2
  %conv1829 = zext i16 %694 to i32
  %695 = load i32* @_ZL3g_2, align 4
  %arrayidx1830 = getelementptr inbounds [5 x [5 x [6 x i32]]]* %l_4, i32 0, i64 3
  %arrayidx1831 = getelementptr inbounds [5 x [6 x i32]]* %arrayidx1830, i32 0, i64 1
  %arrayidx1832 = getelementptr inbounds [6 x i32]* %arrayidx1831, i32 0, i64 5
  %696 = load i32* %arrayidx1832, align 4
  store i32 %696, i32* @_ZL5g_622, align 4
  %697 = load volatile i16* @_ZL5g_277, align 2
  %conv1833 = zext i16 %697 to i32
  %698 = load i32* %l_1293, align 4
  %call1834 = call i32 @_ZL26safe_div_func_uint32_t_u_ujj(i32 %conv1833, i32 %698)
  %cmp1835 = icmp uge i32 %696, %call1834
  %conv1836 = zext i1 %cmp1835 to i32
  %arrayidx1837 = getelementptr inbounds [7 x [6 x [5 x i32]]]* %l_1351, i32 0, i64 1
  %arrayidx1838 = getelementptr inbounds [6 x [5 x i32]]* %arrayidx1837, i32 0, i64 4
  %arrayidx1839 = getelementptr inbounds [5 x i32]* %arrayidx1838, i32 0, i64 2
  %699 = load i32* %arrayidx1839, align 4
  %cmp1840 = icmp sle i32 %conv1836, %699
  %conv1841 = zext i1 %cmp1840 to i32
  %cmp1842 = icmp sle i32 %695, %conv1841
  %conv1843 = zext i1 %cmp1842 to i32
  %700 = load i32* %l_1263, align 4
  %cmp1844 = icmp ne i32 %conv1843, %700
  %conv1845 = zext i1 %cmp1844 to i16
  %701 = load i32* %l_1310, align 4
  %conv1846 = trunc i32 %701 to i16
  %call1847 = call signext i16 @_ZL25safe_div_func_int16_t_s_sss(i16 signext %conv1845, i16 signext %conv1846)
  %conv1848 = sext i16 %call1847 to i32
  %cmp1849 = icmp eq i32 %conv1829, %conv1848
  %conv1850 = zext i1 %cmp1849 to i32
  %and1851 = and i32 %conv1828, %conv1850
  %arrayidx1852 = getelementptr inbounds [7 x [6 x [5 x i32]]]* %l_1351, i32 0, i64 2
  %arrayidx1853 = getelementptr inbounds [6 x [5 x i32]]* %arrayidx1852, i32 0, i64 0
  %arrayidx1854 = getelementptr inbounds [5 x i32]* %arrayidx1853, i32 0, i64 0
  store i32 %and1851, i32* %arrayidx1854, align 4
  %conv1855 = trunc i32 %and1851 to i16
  %702 = load i32* %l_1334, align 4
  %conv1856 = trunc i32 %702 to i16
  %call1857 = call signext i16 @_ZL25safe_mul_func_int16_t_s_sss(i16 signext %conv1855, i16 signext %conv1856)
  %703 = load i32* getelementptr inbounds ([10 x [5 x i32]]* @_ZL4g_49, i32 0, i64 8, i64 2), align 4
  %conv1858 = trunc i32 %703 to i16
  %call1859 = call zeroext i16 @_ZL26safe_mul_func_uint16_t_u_utt(i16 zeroext %call1857, i16 zeroext %conv1858)
  %conv1860 = zext i16 %call1859 to i32
  %704 = load i32* @_ZL5g_930, align 4
  %cmp1861 = icmp ne i32 %conv1860, %704
  %conv1862 = zext i1 %cmp1861 to i16
  store i16 %conv1862, i16* @_ZL4g_56, align 2
  %call1863 = call signext i16 @_ZL28safe_rshift_func_int16_t_s_usj(i16 signext %conv1862, i32 2)
  %conv1864 = sext i16 %call1863 to i32
  %705 = load i32* %l_1306, align 4
  %cmp1865 = icmp sle i32 %conv1864, %705
  %conv1866 = zext i1 %cmp1865 to i32
  %706 = load i16* @_ZL6g_1066, align 2
  %conv1867 = zext i16 %706 to i32
  %cmp1868 = icmp sle i32 %conv1866, %conv1867
  %conv1869 = zext i1 %cmp1868 to i32
  %707 = load i32* @_ZL5g_168, align 4
  %or1870 = or i32 %conv1869, %707
  %xor1871 = xor i32 %692, %or1870
  %conv1872 = trunc i32 %xor1871 to i16
  %call1873 = call signext i16 @_ZL25safe_mul_func_int16_t_s_sss(i16 signext %call1827, i16 signext %conv1872)
  %arrayidx1874 = getelementptr inbounds [4 x i16]* %l_1352, i32 0, i64 2
  store i16 %call1873, i16* %arrayidx1874, align 2
  %conv1875 = sext i16 %call1873 to i32
  %708 = load i32* @_ZL4g_48, align 4
  %or1876 = or i32 %708, %conv1875
  store i32 %or1876, i32* @_ZL4g_48, align 4
  br label %for.inc1877

for.inc1877:                                      ; preds = %land.end1809
  %709 = load i16* @_ZL4g_46, align 2
  %call1878 = call signext i16 @_ZL25safe_add_func_int16_t_s_sss(i16 signext %709, i16 signext 8)
  store i16 %call1878, i16* @_ZL4g_46, align 2
  br label %for.cond1764

for.end1879:                                      ; preds = %for.cond1764
  br label %for.inc1880

for.inc1880:                                      ; preds = %for.end1879
  %710 = load i32* %l_659, align 4
  %inc1881 = add nsw i32 %710, 1
  store i32 %inc1881, i32* %l_659, align 4
  br label %for.cond1753

for.end1882:                                      ; preds = %for.cond1753
  %711 = load i16* %l_662, align 2
  %conv1883 = sext i16 %711 to i32
  %712 = load i32* getelementptr inbounds ([10 x [5 x i32]]* @_ZL4g_49, i32 0, i64 4, i64 3), align 4
  %call1884 = call i32 @_ZL32safe_unary_minus_func_uint32_t_uj(i32 1)
  %cmp1885 = icmp ugt i32 %712, %call1884
  br i1 %cmp1885, label %lor.end1888, label %lor.rhs1886

lor.rhs1886:                                      ; preds = %for.end1882
  %713 = load i32* @_ZL5g_166, align 4
  %tobool1887 = icmp ne i32 %713, 0
  br label %lor.end1888

lor.end1888:                                      ; preds = %lor.rhs1886, %for.end1882
  %714 = phi i1 [ true, %for.end1882 ], [ %tobool1887, %lor.rhs1886 ]
  %conv1889 = zext i1 %714 to i16
  %arrayidx1890 = getelementptr inbounds [5 x [5 x [6 x i32]]]* %l_4, i32 0, i64 4
  %arrayidx1891 = getelementptr inbounds [5 x [6 x i32]]* %arrayidx1890, i32 0, i64 2
  %arrayidx1892 = getelementptr inbounds [6 x i32]* %arrayidx1891, i32 0, i64 2
  %715 = load i32* %arrayidx1892, align 4
  %or1893 = or i32 %715, 12067
  store i32 %or1893, i32* %arrayidx1892, align 4
  %conv1894 = trunc i32 %or1893 to i16
  %716 = load i32* %l_1031, align 4
  %717 = load i32* %l_1266, align 4
  %and1895 = and i32 %716, %717
  %conv1896 = trunc i32 %and1895 to i16
  %arrayidx1897 = getelementptr inbounds [4 x i16]* %l_858, i32 0, i64 3
  %718 = load i16* %arrayidx1897, align 2
  %conv1898 = sext i16 %718 to i32
  %call1899 = call zeroext i16 @_ZL29safe_lshift_func_uint16_t_u_utj(i16 zeroext %conv1896, i32 %conv1898)
  %conv1900 = zext i16 %call1899 to i32
  %cmp1901 = icmp sge i32 8545, %conv1900
  %conv1902 = zext i1 %cmp1901 to i16
  %call1903 = call signext i16 @_ZL25safe_mod_func_int16_t_s_sss(i16 signext %conv1902, i16 signext -23841)
  %conv1904 = sext i16 %call1903 to i32
  %719 = load i32* getelementptr inbounds ([6 x i32]* @_ZL6g_1311, i32 0, i64 5), align 4
  %cmp1905 = icmp ule i32 %conv1904, %719
  %conv1906 = zext i1 %cmp1905 to i32
  %720 = load i32* @_ZL6g_1295, align 4
  %and1907 = and i32 %conv1906, %720
  %arrayidx1908 = getelementptr inbounds [5 x [2 x [1 x i32]]]* %l_1336, i32 0, i64 3
  %arrayidx1909 = getelementptr inbounds [2 x [1 x i32]]* %arrayidx1908, i32 0, i64 1
  %arrayidx1910 = getelementptr inbounds [1 x i32]* %arrayidx1909, i32 0, i64 0
  %721 = load i32* %arrayidx1910, align 4
  %call1911 = call i32 @_ZL26safe_sub_func_uint32_t_u_ujj(i32 %and1907, i32 %721)
  %conv1912 = trunc i32 %call1911 to i16
  %call1913 = call signext i16 @_ZL25safe_mul_func_int16_t_s_sss(i16 signext %conv1894, i16 signext %conv1912)
  %conv1914 = sext i16 %call1913 to i32
  %722 = load i32* @_ZL4g_48, align 4
  %cmp1915 = icmp eq i32 %conv1914, %722
  %conv1916 = zext i1 %cmp1915 to i32
  %call1917 = call signext i16 @_ZL28safe_lshift_func_int16_t_s_ssi(i16 signext %conv1889, i32 %conv1916)
  %conv1918 = sext i16 %call1917 to i32
  %723 = load i32* @_ZL5g_166, align 4
  %cmp1919 = icmp eq i32 %conv1918, %723
  %conv1920 = zext i1 %cmp1919 to i16
  %call1921 = call zeroext i16 @_ZL26safe_mul_func_uint16_t_u_utt(i16 zeroext -10, i16 zeroext %conv1920)
  %conv1922 = zext i16 %call1921 to i32
  %724 = load i32* @_ZL6g_1021, align 4
  %call1923 = call i32 @_ZL25safe_add_func_int32_t_s_sii(i32 %conv1922, i32 %724)
  %cmp1924 = icmp sgt i32 %conv1883, %call1923
  br i1 %cmp1924, label %land.rhs1925, label %land.end1927

land.rhs1925:                                     ; preds = %lor.end1888
  %725 = load i32* getelementptr inbounds ([6 x i32]* @_ZL6g_1311, i32 0, i64 1), align 4
  %tobool1926 = icmp ne i32 %725, 0
  br label %land.end1927

land.end1927:                                     ; preds = %land.rhs1925, %lor.end1888
  %726 = phi i1 [ false, %lor.end1888 ], [ %tobool1926, %land.rhs1925 ]
  %conv1928 = zext i1 %726 to i16
  %call1929 = call zeroext i16 @_ZL26safe_mul_func_uint16_t_u_utt(i16 zeroext %conv1928, i16 zeroext -1120)
  %conv1930 = zext i16 %call1929 to i32
  %arrayidx1931 = getelementptr inbounds [5 x i32]* %l_1370, i32 0, i64 0
  store i32 %conv1930, i32* %arrayidx1931, align 4
  %727 = load i32* getelementptr inbounds ([6 x i32]* @_ZL6g_1311, i32 0, i64 5), align 4
  %conv1932 = trunc i32 %727 to i16
  %728 = load i16* @_ZL4g_46, align 2
  %conv1933 = sext i16 %728 to i32
  %729 = load i32* @_ZL5g_398, align 4
  %arrayidx1934 = getelementptr inbounds [4 x i16]* %l_1352, i32 0, i64 0
  %730 = load i16* %arrayidx1934, align 2
  %conv1935 = sext i16 %730 to i32
  %731 = load i32* @_ZL4g_55, align 4
  %xor1936 = xor i32 %conv1935, %731
  %arrayidx1937 = getelementptr inbounds [9 x [3 x i32]]* %l_871, i32 0, i64 1
  %arrayidx1938 = getelementptr inbounds [3 x i32]* %arrayidx1937, i32 0, i64 1
  %732 = load i32* %arrayidx1938, align 4
  %cmp1939 = icmp ne i32 %xor1936, %732
  %conv1940 = zext i1 %cmp1939 to i32
  %cmp1941 = icmp ne i32 %729, %conv1940
  %conv1942 = zext i1 %cmp1941 to i16
  %733 = load i16* %l_1384, align 2
  %conv1943 = sext i16 %733 to i32
  %call1944 = call zeroext i16 @_ZL29safe_rshift_func_uint16_t_u_utj(i16 zeroext %conv1942, i32 %conv1943)
  %conv1945 = zext i16 %call1944 to i32
  %cmp1946 = icmp sle i32 -1, %conv1945
  %conv1947 = zext i1 %cmp1946 to i32
  %arrayidx1948 = getelementptr inbounds [5 x [5 x [6 x i32]]]* %l_4, i32 0, i64 4
  %arrayidx1949 = getelementptr inbounds [5 x [6 x i32]]* %arrayidx1948, i32 0, i64 1
  %arrayidx1950 = getelementptr inbounds [6 x i32]* %arrayidx1949, i32 0, i64 5
  %734 = load i32* %arrayidx1950, align 4
  %or1951 = or i32 %734, %conv1947
  store i32 %or1951, i32* %arrayidx1950, align 4
  %tobool1952 = icmp ne i32 %or1951, 0
  br i1 %tobool1952, label %land.rhs1953, label %land.end1955

land.rhs1953:                                     ; preds = %land.end1927
  %735 = load i16* @_ZL6g_1066, align 2
  %tobool1954 = icmp ne i16 %735, 0
  br label %land.end1955

land.end1955:                                     ; preds = %land.rhs1953, %land.end1927
  %736 = phi i1 [ false, %land.end1927 ], [ %tobool1954, %land.rhs1953 ]
  %conv1956 = zext i1 %736 to i32
  store i32 %conv1956, i32* %l_1293, align 4
  %and1957 = and i32 %conv1933, %conv1956
  %call1958 = call i32 @_ZL31safe_unary_minus_func_int32_t_si(i32 %and1957)
  %conv1959 = trunc i32 %call1958 to i16
  %call1960 = call signext i16 @_ZL25safe_sub_func_int16_t_s_sss(i16 signext 12963, i16 signext %conv1959)
  %conv1961 = sext i16 %call1960 to i32
  %cmp1962 = icmp sle i32 0, %conv1961
  %conv1963 = zext i1 %cmp1962 to i32
  %737 = load i32* %l_1306, align 4
  %cmp1964 = icmp sgt i32 %conv1963, %737
  %conv1965 = zext i1 %cmp1964 to i32
  %738 = load i32* @_ZL5g_930, align 4
  %cmp1966 = icmp ne i32 %conv1965, %738
  %conv1967 = zext i1 %cmp1966 to i32
  %cmp1968 = icmp ne i32 %conv1967, 4
  %conv1969 = zext i1 %cmp1968 to i32
  %cmp1970 = icmp sle i32 791716243, %conv1969
  %conv1971 = zext i1 %cmp1970 to i16
  %call1972 = call zeroext i16 @_ZL29safe_lshift_func_uint16_t_u_sti(i16 zeroext %conv1971, i32 4)
  %call1973 = call zeroext i16 @_ZL26safe_mod_func_uint16_t_u_utt(i16 zeroext %call1972, i16 zeroext -16450)
  %arrayidx1974 = getelementptr inbounds [4 x i16]* %l_1352, i32 0, i64 0
  %739 = load i16* %arrayidx1974, align 2
  %conv1975 = sext i16 %739 to i32
  %call1976 = call zeroext i16 @_ZL29safe_lshift_func_uint16_t_u_utj(i16 zeroext %call1973, i32 %conv1975)
  %call1977 = call signext i16 @_ZL25safe_add_func_int16_t_s_sss(i16 signext %conv1932, i16 signext %call1976)
  %conv1978 = sext i16 %call1977 to i32
  store i32 %conv1978, i32* %l_1166, align 4
  br label %for.inc1979

for.inc1979:                                      ; preds = %land.end1955
  %740 = load i16* %l_679, align 2
  %inc1980 = add i16 %740, 1
  store i16 %inc1980, i16* %l_679, align 2
  br label %for.cond1740

for.end1981:                                      ; preds = %for.cond1740
  %741 = load i32* @_ZL4g_33, align 4
  %742 = load i16* @_ZL5g_394, align 2
  %conv1982 = zext i16 %742 to i32
  %or1983 = or i32 %741, %conv1982
  store i32 %or1983, i32* @_ZL6g_1295, align 4
  store i32 0, i32* @_ZL5g_622, align 4
  br label %for.cond1984

for.cond1984:                                     ; preds = %for.inc2638, %for.end1981
  %743 = load i32* @_ZL5g_622, align 4
  %cmp1985 = icmp eq i32 %743, 1
  br i1 %cmp1985, label %for.body1986, label %for.end2640

for.body1986:                                     ; preds = %for.cond1984
  store i32 -4, i32* %l_1428, align 4
  store i16 2187, i16* %l_1465, align 2
  store i32 -3, i32* %l_1470, align 4
  store i32 0, i32* %l_1486, align 4
  store i32 656466666, i32* %l_1532, align 4
  store i32 -1, i32* %l_1590, align 4
  store i32 10, i32* @_ZL4g_33, align 4
  br label %for.cond1987

for.cond1987:                                     ; preds = %for.inc2143, %for.body1986
  %744 = load i32* @_ZL4g_33, align 4
  %cmp1988 = icmp ult i32 %744, 17
  br i1 %cmp1988, label %for.body1989, label %for.end2145

for.body1989:                                     ; preds = %for.cond1987
  store i16 -10, i16* %l_1429, align 2
  store i32 -849698366, i32* %l_1433, align 4
  %745 = bitcast [10 x [6 x [1 x i32]]]* %l_1451 to i8*
  call void @llvm.memcpy.p0i8.p0i8.i64(i8* %745, i8* bitcast ([10 x [6 x [1 x i32]]]* @_ZZL6func_1vE6l_1451 to i8*), i64 240, i32 16, i1 false)
  %746 = load i32* @_ZL6g_1021, align 4
  %747 = load i32* @_ZL4g_33, align 4
  %748 = load i16* @_ZL6g_1066, align 2
  %dec1993 = add i16 %748, -1
  store i16 %dec1993, i16* @_ZL6g_1066, align 2
  %749 = load i16* %l_679, align 2
  %conv1994 = zext i16 %749 to i32
  %call1995 = call zeroext i16 @_ZL29safe_rshift_func_uint16_t_u_sti(i16 zeroext %dec1993, i32 %conv1994)
  %750 = load i32* %l_704, align 4
